ARM GAS  C:\Users\Doel\AppData\Local\Temp\cchIRvGy.s 			page 1


   1              		.cpu cortex-m0
   2              		.fpu softvfp
   3              		.eabi_attribute 20, 1
   4              		.eabi_attribute 21, 1
   5              		.eabi_attribute 23, 3
   6              		.eabi_attribute 24, 1
   7              		.eabi_attribute 25, 1
   8              		.eabi_attribute 26, 1
   9              		.eabi_attribute 30, 6
  10              		.eabi_attribute 34, 0
  11              		.eabi_attribute 18, 4
  12              		.code	16
  13              		.file	"main.c"
  14              		.text
  15              	.Ltext0:
  16              		.cfi_sections	.debug_frame
  17              		.global	i
  18              		.bss
  19              		.align	1
  20              		.type	i, %object
  21              		.size	i, 2
  22              	i:
  23 0000 0000     		.space	2
  24              		.global	distance
  25 0002 0000     		.align	2
  26              		.type	distance, %object
  27              		.size	distance, 4
  28              	distance:
  29 0004 00000000 		.space	4
  30              		.global	__aeabi_idiv
  31              		.section	.text.Timer_ISR_handler,"ax",%progbits
  32              		.align	2
  33              		.global	Timer_ISR_handler
  34              		.code	16
  35              		.thumb_func
  36              		.type	Timer_ISR_handler, %function
  37              	Timer_ISR_handler:
  38              	.LFB33:
  39              		.file 1 ".\\main.c"
   1:.\main.c      **** /* ========================================
   2:.\main.c      ****  *
   3:.\main.c      ****  * Copyleft by Shahariar,2015
   4:.\main.c      ****  * All Rights Released
   5:.\main.c      ****  * OPEN SOFTWARE, NO WARRENTY 
   6:.\main.c      ****  *
   7:.\main.c      ****  * DODGY BROTHERS C CODING Inc.  
   8:.\main.c      ****  * BUG may appear in Future !!!
   9:.\main.c      ****  * Non-Precision UltraSonic Ranger,
  10:.\main.c      ****  * ========================================
  11:.\main.c      **** */
  12:.\main.c      **** 
  13:.\main.c      **** #include <project.h>
  14:.\main.c      **** 
  15:.\main.c      **** // Initial time ,set  here
  16:.\main.c      **** int16 i =0;
  17:.\main.c      **** int distance=0;
  18:.\main.c      **** 
ARM GAS  C:\Users\Doel\AppData\Local\Temp\cchIRvGy.s 			page 2


  19:.\main.c      **** //CY ISR is a macro for interrupt handling
  20:.\main.c      **** // http://www.cypress.com/go/an90799 for detalis
  21:.\main.c      **** CY_ISR(Timer_ISR_handler)
  22:.\main.c      **** {
  40              		.loc 1 22 0
  41              		.cfi_startproc
  42 0000 80B5     		push	{r7, lr}
  43              	.LCFI0:
  44              		.cfi_def_cfa_offset 8
  45              		.cfi_offset 7, -8
  46              		.cfi_offset 14, -4
  47 0002 00AF     		add	r7, sp, #0
  48              	.LCFI1:
  49              		.cfi_def_cfa_register 7
  23:.\main.c      ****     // at 1MHz Timer clock each count is 1 micro Second
  24:.\main.c      ****     Timer_ClearInterrupt(Timer_INTR_MASK_CC_MATCH);
  50              		.loc 1 24 0
  51 0004 0220     		mov	r0, #2
  52 0006 FFF7FEFF 		bl	Timer_ClearInterrupt
  25:.\main.c      ****     i= Timer_ReadCounter();    
  53              		.loc 1 25 0
  54 000a FFF7FEFF 		bl	Timer_ReadCounter
  55 000e 031C     		mov	r3, r0
  56 0010 9AB2     		uxth	r2, r3
  57 0012 084B     		ldr	r3, .L2
  58 0014 1A80     		strh	r2, [r3]
  26:.\main.c      ****     
  27:.\main.c      ****     // from HC 04 Ultra Sonic module's datasheet, each 58 uS = 1 cm
  28:.\main.c      ****     
  29:.\main.c      ****     distance =i/58;
  59              		.loc 1 29 0
  60 0016 074B     		ldr	r3, .L2
  61 0018 1B88     		ldrh	r3, [r3]
  62 001a 1BB2     		sxth	r3, r3
  63 001c 181C     		mov	r0, r3
  64 001e 3A21     		mov	r1, #58
  65 0020 FFF7FEFF 		bl	__aeabi_idiv
  66 0024 031C     		mov	r3, r0
  67 0026 9BB2     		uxth	r3, r3
  68 0028 1AB2     		sxth	r2, r3
  69 002a 034B     		ldr	r3, .L2+4
  70 002c 1A60     		str	r2, [r3]
  30:.\main.c      ****     // please note that measured distance above 400 cm is not reliable
  31:.\main.c      ****     
  32:.\main.c      **** }
  71              		.loc 1 32 0
  72 002e BD46     		mov	sp, r7
  73              		@ sp needed for prologue
  74 0030 80BD     		pop	{r7, pc}
  75              	.L3:
  76 0032 C046     		.align	2
  77              	.L2:
  78 0034 00000000 		.word	i
  79 0038 00000000 		.word	distance
  80              		.cfi_endproc
  81              	.LFE33:
  82              		.size	Timer_ISR_handler, .-Timer_ISR_handler
ARM GAS  C:\Users\Doel\AppData\Local\Temp\cchIRvGy.s 			page 3


  83              		.section	.rodata
  84              		.align	2
  85              	.LC3:
  86 0000 50536F43 		.ascii	"PSoC SonicRANGER\000"
  86      20536F6E 
  86      69635241 
  86      4E474552 
  86      00
  87 0011 000000   		.align	2
  88              	.LC5:
  89 0014 44697374 		.ascii	"Distance: \000"
  89      616E6365 
  89      3A2000
  90 001f 00       		.align	2
  91              	.LC8:
  92 0020 636D00   		.ascii	"cm\000"
  93 0023 00       		.section	.text.main,"ax",%progbits
  94              		.align	2
  95              		.global	main
  96              		.code	16
  97              		.thumb_func
  98              		.type	main, %function
  99              	main:
 100              	.LFB34:
  33:.\main.c      **** 
  34:.\main.c      **** int main()
  35:.\main.c      **** 
  36:.\main.c      **** {
 101              		.loc 1 36 0
 102              		.cfi_startproc
 103 0000 80B5     		push	{r7, lr}
 104              	.LCFI2:
 105              		.cfi_def_cfa_offset 8
 106              		.cfi_offset 7, -8
 107              		.cfi_offset 14, -4
 108 0002 00AF     		add	r7, sp, #0
 109              	.LCFI3:
 110              		.cfi_def_cfa_register 7
  37:.\main.c      **** // Start Timer
  38:.\main.c      ****     Timer_Start();
 111              		.loc 1 38 0
 112 0004 FFF7FEFF 		bl	Timer_Start
  39:.\main.c      **** // Enable Global Interrupt and start ISR  
  40:.\main.c      ****     CyGlobalIntEnable; 
 113              		.loc 1 40 0
 114              	@ 40 ".\main.c" 1
 115 0008 62B6     		CPSIE   i
 116              	@ 0 "" 2
  41:.\main.c      ****     ISR_StartEx(Timer_ISR_handler);
 117              		.loc 1 41 0
 118              		.code	16
 119 000a 264B     		ldr	r3, .L6
 120 000c 181C     		mov	r0, r3
 121 000e FFF7FEFF 		bl	ISR_StartEx
  42:.\main.c      ****     //SetTime_ISR_Start();
  43:.\main.c      ****     
  44:.\main.c      **** //  Supply 5 Vdd to LCD display from MCU and power up Back Light  
ARM GAS  C:\Users\Doel\AppData\Local\Temp\cchIRvGy.s 			page 4


  45:.\main.c      ****     Power_Up_LCD_Pin_1_Write(1);
 122              		.loc 1 45 0
 123 0012 0120     		mov	r0, #1
 124 0014 FFF7FEFF 		bl	Power_Up_LCD_Pin_1_Write
  46:.\main.c      ****     Back_Light_On_N_Write(0);
 125              		.loc 1 46 0
 126 0018 0020     		mov	r0, #0
 127 001a FFF7FEFF 		bl	Back_Light_On_N_Write
  47:.\main.c      ****     Back_Light_On_P_Write(1);
 128              		.loc 1 47 0
 129 001e 0120     		mov	r0, #1
 130 0020 FFF7FEFF 		bl	Back_Light_On_P_Write
  48:.\main.c      **** 
  49:.\main.c      **** // Start LCD display    
  50:.\main.c      ****     LCD_Char_Start();
 131              		.loc 1 50 0
 132 0024 FFF7FEFF 		bl	LCD_Char_Start
  51:.\main.c      ****     LCD_Char_DisplayOn();
 133              		.loc 1 51 0
 134 0028 0C20     		mov	r0, #12
 135 002a FFF7FEFF 		bl	LCD_Char_WriteControl
 136              	.L5:
  52:.\main.c      ****     
  53:.\main.c      ****              
  54:.\main.c      ****         for(;;)
  55:.\main.c      ****         {
  56:.\main.c      ****     // for proper application, delay should not be used, 
  57:.\main.c      ****     // instead a preiodic interrupt or a function call is recommended
  58:.\main.c      ****     CyDelay(500);
 137              		.loc 1 58 0 discriminator 1
 138 002e FA23     		mov	r3, #250
 139 0030 5B00     		lsl	r3, r3, #1
 140 0032 181C     		mov	r0, r3
 141 0034 FFF7FEFF 		bl	CyDelay
  59:.\main.c      ****     
  60:.\main.c      ****     // Triggers the Ultra Sonic Sensor 
  61:.\main.c      ****     Trigger_Write(1);
 142              		.loc 1 61 0 discriminator 1
 143 0038 0120     		mov	r0, #1
 144 003a FFF7FEFF 		bl	Trigger_Write
  62:.\main.c      ****     LED_Write(1);
 145              		.loc 1 62 0 discriminator 1
 146 003e 0120     		mov	r0, #1
 147 0040 FFF7FEFF 		bl	LED_Write
  63:.\main.c      ****     CyDelayUs(10);
 148              		.loc 1 63 0 discriminator 1
 149 0044 0A20     		mov	r0, #10
 150 0046 FFF7FEFF 		bl	CyDelayUs
  64:.\main.c      ****     // for 10 uS
  65:.\main.c      ****     Trigger_Write(0);
 151              		.loc 1 65 0 discriminator 1
 152 004a 0020     		mov	r0, #0
 153 004c FFF7FEFF 		bl	Trigger_Write
  66:.\main.c      ****     LED_Write(0);
 154              		.loc 1 66 0 discriminator 1
 155 0050 0020     		mov	r0, #0
 156 0052 FFF7FEFF 		bl	LED_Write
ARM GAS  C:\Users\Doel\AppData\Local\Temp\cchIRvGy.s 			page 5


  67:.\main.c      ****     
  68:.\main.c      ****     LCD_Char_ClearDisplay();
 157              		.loc 1 68 0 discriminator 1
 158 0056 0120     		mov	r0, #1
 159 0058 FFF7FEFF 		bl	LCD_Char_WriteControl
  69:.\main.c      ****    
  70:.\main.c      ****     
  71:.\main.c      ****     LCD_Char_Position(0,0);
 160              		.loc 1 71 0 discriminator 1
 161 005c 0020     		mov	r0, #0
 162 005e 0021     		mov	r1, #0
 163 0060 FFF7FEFF 		bl	LCD_Char_Position
  72:.\main.c      ****     LCD_Char_PrintString("PSoC SonicRANGER");
 164              		.loc 1 72 0 discriminator 1
 165 0064 104B     		ldr	r3, .L6+4
 166 0066 181C     		mov	r0, r3
 167 0068 FFF7FEFF 		bl	LCD_Char_PrintString
  73:.\main.c      ****     
  74:.\main.c      ****     LCD_Char_Position(1,0);
 168              		.loc 1 74 0 discriminator 1
 169 006c 0120     		mov	r0, #1
 170 006e 0021     		mov	r1, #0
 171 0070 FFF7FEFF 		bl	LCD_Char_Position
  75:.\main.c      ****     LCD_Char_PrintString("Distance: ");
 172              		.loc 1 75 0 discriminator 1
 173 0074 0D4B     		ldr	r3, .L6+8
 174 0076 181C     		mov	r0, r3
 175 0078 FFF7FEFF 		bl	LCD_Char_PrintString
  76:.\main.c      ****     
  77:.\main.c      ****     LCD_Char_Position(1,10);
 176              		.loc 1 77 0 discriminator 1
 177 007c 0120     		mov	r0, #1
 178 007e 0A21     		mov	r1, #10
 179 0080 FFF7FEFF 		bl	LCD_Char_Position
  78:.\main.c      ****     LCD_Char_PrintNumber(distance);
 180              		.loc 1 78 0 discriminator 1
 181 0084 0A4B     		ldr	r3, .L6+12
 182 0086 1B68     		ldr	r3, [r3]
 183 0088 9BB2     		uxth	r3, r3
 184 008a 181C     		mov	r0, r3
 185 008c FFF7FEFF 		bl	LCD_Char_PrintU32Number
  79:.\main.c      ****     
  80:.\main.c      ****     LCD_Char_Position(1,14);
 186              		.loc 1 80 0 discriminator 1
 187 0090 0120     		mov	r0, #1
 188 0092 0E21     		mov	r1, #14
 189 0094 FFF7FEFF 		bl	LCD_Char_Position
  81:.\main.c      ****     LCD_Char_PrintString("cm");
 190              		.loc 1 81 0 discriminator 1
 191 0098 064B     		ldr	r3, .L6+16
 192 009a 181C     		mov	r0, r3
 193 009c FFF7FEFF 		bl	LCD_Char_PrintString
  82:.\main.c      ****     
  83:.\main.c      ****     
  84:.\main.c      ****     
  85:.\main.c      **** }
 194              		.loc 1 85 0 discriminator 1
ARM GAS  C:\Users\Doel\AppData\Local\Temp\cchIRvGy.s 			page 6


 195 00a0 C5E7     		b	.L5
 196              	.L7:
 197 00a2 C046     		.align	2
 198              	.L6:
 199 00a4 00000000 		.word	Timer_ISR_handler
 200 00a8 00000000 		.word	.LC3
 201 00ac 14000000 		.word	.LC5
 202 00b0 00000000 		.word	distance
 203 00b4 20000000 		.word	.LC8
 204              		.cfi_endproc
 205              	.LFE34:
 206              		.size	main, .-main
 207              		.text
 208              	.Letext0:
 209              		.file 2 "./Generated_Source/PSoC4/cytypes.h"