ARM GAS  C:\Users\quint\AppData\Local\Temp\ccOXFVSh.s 			page 1


   1              		.syntax unified
   2              		.cpu cortex-m0
   3              		.fpu softvfp
   4              		.eabi_attribute 20, 1
   5              		.eabi_attribute 21, 1
   6              		.eabi_attribute 23, 3
   7              		.eabi_attribute 24, 1
   8              		.eabi_attribute 25, 1
   9              		.eabi_attribute 26, 1
  10              		.eabi_attribute 30, 6
  11              		.eabi_attribute 34, 0
  12              		.eabi_attribute 18, 4
  13              		.thumb
  14              		.syntax unified
  15              		.file	"LCD_Char.c"
  16              		.text
  17              	.Ltext0:
  18              		.cfi_sections	.debug_frame
  19              		.global	LCD_Char_enableState
  20              		.bss
  21              		.type	LCD_Char_enableState, %object
  22              		.size	LCD_Char_enableState, 1
  23              	LCD_Char_enableState:
  24 0000 00       		.space	1
  25              		.global	LCD_Char_initVar
  26              		.type	LCD_Char_initVar, %object
  27              		.size	LCD_Char_initVar, 1
  28              	LCD_Char_initVar:
  29 0001 00       		.space	1
  30              		.section	.text.LCD_Char_Init,"ax",%progbits
  31              		.align	2
  32              		.global	LCD_Char_Init
  33              		.code	16
  34              		.thumb_func
  35              		.type	LCD_Char_Init, %function
  36              	LCD_Char_Init:
  37              	.LFB0:
  38              		.file 1 "Generated_Source\\PSoC4\\LCD_Char.c"
   1:Generated_Source\PSoC4/LCD_Char.c **** /*******************************************************************************
   2:Generated_Source\PSoC4/LCD_Char.c **** * File Name: LCD_Char.c
   3:Generated_Source\PSoC4/LCD_Char.c **** * Version 2.20
   4:Generated_Source\PSoC4/LCD_Char.c **** *
   5:Generated_Source\PSoC4/LCD_Char.c **** * Description:
   6:Generated_Source\PSoC4/LCD_Char.c **** *  This file provides source code for the Character LCD component's API.
   7:Generated_Source\PSoC4/LCD_Char.c **** *
   8:Generated_Source\PSoC4/LCD_Char.c **** * Note:
   9:Generated_Source\PSoC4/LCD_Char.c **** *
  10:Generated_Source\PSoC4/LCD_Char.c **** ********************************************************************************
  11:Generated_Source\PSoC4/LCD_Char.c **** * Copyright 2008-2014, Cypress Semiconductor Corporation.  All rights reserved.
  12:Generated_Source\PSoC4/LCD_Char.c **** * You may use this file only in accordance with the license, terms, conditions,
  13:Generated_Source\PSoC4/LCD_Char.c **** * disclaimers, and limitations in the end user license agreement accompanying
  14:Generated_Source\PSoC4/LCD_Char.c **** * the software package with which this file was provided.
  15:Generated_Source\PSoC4/LCD_Char.c **** *******************************************************************************/
  16:Generated_Source\PSoC4/LCD_Char.c **** 
  17:Generated_Source\PSoC4/LCD_Char.c **** #include "CyLib.h"
  18:Generated_Source\PSoC4/LCD_Char.c **** #include "LCD_Char.h"
  19:Generated_Source\PSoC4/LCD_Char.c **** 
ARM GAS  C:\Users\quint\AppData\Local\Temp\ccOXFVSh.s 			page 2


  20:Generated_Source\PSoC4/LCD_Char.c **** 
  21:Generated_Source\PSoC4/LCD_Char.c **** static void LCD_Char_WrDatNib(uint8 nibble) ;
  22:Generated_Source\PSoC4/LCD_Char.c **** static void LCD_Char_WrCntrlNib(uint8 nibble) ;
  23:Generated_Source\PSoC4/LCD_Char.c **** 
  24:Generated_Source\PSoC4/LCD_Char.c **** /* Stores state of component. Indicates whether component is or not
  25:Generated_Source\PSoC4/LCD_Char.c **** * in enable state.
  26:Generated_Source\PSoC4/LCD_Char.c **** */
  27:Generated_Source\PSoC4/LCD_Char.c **** uint8 LCD_Char_enableState = 0u;
  28:Generated_Source\PSoC4/LCD_Char.c **** 
  29:Generated_Source\PSoC4/LCD_Char.c **** uint8 LCD_Char_initVar = 0u;
  30:Generated_Source\PSoC4/LCD_Char.c **** 
  31:Generated_Source\PSoC4/LCD_Char.c **** 
  32:Generated_Source\PSoC4/LCD_Char.c **** /*******************************************************************************
  33:Generated_Source\PSoC4/LCD_Char.c **** * Function Name: LCD_Char_Init
  34:Generated_Source\PSoC4/LCD_Char.c **** ********************************************************************************
  35:Generated_Source\PSoC4/LCD_Char.c **** *
  36:Generated_Source\PSoC4/LCD_Char.c **** * Summary:
  37:Generated_Source\PSoC4/LCD_Char.c **** *  Performs initialization required for the components normal work.
  38:Generated_Source\PSoC4/LCD_Char.c **** *  This function initializes the LCD hardware module as follows:
  39:Generated_Source\PSoC4/LCD_Char.c **** *        Enables a 4-bit interface
  40:Generated_Source\PSoC4/LCD_Char.c **** *        Clears the display
  41:Generated_Source\PSoC4/LCD_Char.c **** *        Enables the auto cursor increment
  42:Generated_Source\PSoC4/LCD_Char.c **** *        Resets the cursor to start position
  43:Generated_Source\PSoC4/LCD_Char.c **** *  Also, it loads a custom character set to the LCD if it was defined in the customizer.
  44:Generated_Source\PSoC4/LCD_Char.c **** *
  45:Generated_Source\PSoC4/LCD_Char.c **** * Parameters:
  46:Generated_Source\PSoC4/LCD_Char.c **** *  None.
  47:Generated_Source\PSoC4/LCD_Char.c **** *
  48:Generated_Source\PSoC4/LCD_Char.c **** * Return:
  49:Generated_Source\PSoC4/LCD_Char.c **** *  None.
  50:Generated_Source\PSoC4/LCD_Char.c **** *
  51:Generated_Source\PSoC4/LCD_Char.c **** * Reentrant:
  52:Generated_Source\PSoC4/LCD_Char.c **** *  No.
  53:Generated_Source\PSoC4/LCD_Char.c **** *
  54:Generated_Source\PSoC4/LCD_Char.c **** *******************************************************************************/
  55:Generated_Source\PSoC4/LCD_Char.c **** void LCD_Char_Init(void) 
  56:Generated_Source\PSoC4/LCD_Char.c **** {
  39              		.loc 1 56 0
  40              		.cfi_startproc
  41              		@ args = 0, pretend = 0, frame = 0
  42              		@ frame_needed = 1, uses_anonymous_args = 0
  43 0000 80B5     		push	{r7, lr}
  44              		.cfi_def_cfa_offset 8
  45              		.cfi_offset 7, -8
  46              		.cfi_offset 14, -4
  47 0002 00AF     		add	r7, sp, #0
  48              		.cfi_def_cfa_register 7
  57:Generated_Source\PSoC4/LCD_Char.c ****     /* INIT CODE */
  58:Generated_Source\PSoC4/LCD_Char.c ****     CyDelay(40u);                                                        /* Delay 40 ms */
  49              		.loc 1 58 0
  50 0004 2820     		movs	r0, #40
  51 0006 FFF7FEFF 		bl	CyDelay
  59:Generated_Source\PSoC4/LCD_Char.c ****     LCD_Char_WrCntrlNib(LCD_Char_DISPLAY_8_BIT_INIT);    /* Selects 8-bit mode */
  52              		.loc 1 59 0
  53 000a 0320     		movs	r0, #3
  54 000c FFF7FEFF 		bl	LCD_Char_WrCntrlNib
  60:Generated_Source\PSoC4/LCD_Char.c ****     CyDelay(5u);                                                         /* Delay 5 ms */
ARM GAS  C:\Users\quint\AppData\Local\Temp\ccOXFVSh.s 			page 3


  55              		.loc 1 60 0
  56 0010 0520     		movs	r0, #5
  57 0012 FFF7FEFF 		bl	CyDelay
  61:Generated_Source\PSoC4/LCD_Char.c ****     LCD_Char_WrCntrlNib(LCD_Char_DISPLAY_8_BIT_INIT);    /* Selects 8-bit mode */
  58              		.loc 1 61 0
  59 0016 0320     		movs	r0, #3
  60 0018 FFF7FEFF 		bl	LCD_Char_WrCntrlNib
  62:Generated_Source\PSoC4/LCD_Char.c ****     CyDelay(15u);                                                        /* Delay 15 ms */
  61              		.loc 1 62 0
  62 001c 0F20     		movs	r0, #15
  63 001e FFF7FEFF 		bl	CyDelay
  63:Generated_Source\PSoC4/LCD_Char.c ****     LCD_Char_WrCntrlNib(LCD_Char_DISPLAY_8_BIT_INIT);    /* Selects 8-bit mode */
  64              		.loc 1 63 0
  65 0022 0320     		movs	r0, #3
  66 0024 FFF7FEFF 		bl	LCD_Char_WrCntrlNib
  64:Generated_Source\PSoC4/LCD_Char.c ****     CyDelay(1u);                                                         /* Delay 1 ms */
  67              		.loc 1 64 0
  68 0028 0120     		movs	r0, #1
  69 002a FFF7FEFF 		bl	CyDelay
  65:Generated_Source\PSoC4/LCD_Char.c ****     LCD_Char_WrCntrlNib(LCD_Char_DISPLAY_4_BIT_INIT);    /* Selects 4-bit mode */
  70              		.loc 1 65 0
  71 002e 0220     		movs	r0, #2
  72 0030 FFF7FEFF 		bl	LCD_Char_WrCntrlNib
  66:Generated_Source\PSoC4/LCD_Char.c ****     CyDelay(5u);                                                         /* Delay 5 ms */
  73              		.loc 1 66 0
  74 0034 0520     		movs	r0, #5
  75 0036 FFF7FEFF 		bl	CyDelay
  67:Generated_Source\PSoC4/LCD_Char.c **** 
  68:Generated_Source\PSoC4/LCD_Char.c ****     LCD_Char_WriteControl(LCD_Char_CURSOR_AUTO_INCR_ON);    /* Incr Cursor After Writes */
  76              		.loc 1 68 0
  77 003a 0620     		movs	r0, #6
  78 003c FFF7FEFF 		bl	LCD_Char_WriteControl
  69:Generated_Source\PSoC4/LCD_Char.c ****     LCD_Char_WriteControl(LCD_Char_DISPLAY_CURSOR_ON);      /* Turn Display, Cursor ON */
  79              		.loc 1 69 0
  80 0040 0E20     		movs	r0, #14
  81 0042 FFF7FEFF 		bl	LCD_Char_WriteControl
  70:Generated_Source\PSoC4/LCD_Char.c ****     LCD_Char_WriteControl(LCD_Char_DISPLAY_2_LINES_5x10);   /* 2 Lines by 5x10 Characters */
  82              		.loc 1 70 0
  83 0046 2C20     		movs	r0, #44
  84 0048 FFF7FEFF 		bl	LCD_Char_WriteControl
  71:Generated_Source\PSoC4/LCD_Char.c ****     LCD_Char_WriteControl(LCD_Char_DISPLAY_CURSOR_OFF);     /* Turn Display, Cursor OFF */
  85              		.loc 1 71 0
  86 004c 0820     		movs	r0, #8
  87 004e FFF7FEFF 		bl	LCD_Char_WriteControl
  72:Generated_Source\PSoC4/LCD_Char.c ****     LCD_Char_WriteControl(LCD_Char_CLEAR_DISPLAY);          /* Clear LCD Screen */
  88              		.loc 1 72 0
  89 0052 0120     		movs	r0, #1
  90 0054 FFF7FEFF 		bl	LCD_Char_WriteControl
  73:Generated_Source\PSoC4/LCD_Char.c ****     LCD_Char_WriteControl(LCD_Char_DISPLAY_ON_CURSOR_OFF);  /* Turn Display ON, Cursor OFF */
  91              		.loc 1 73 0
  92 0058 0C20     		movs	r0, #12
  93 005a FFF7FEFF 		bl	LCD_Char_WriteControl
  74:Generated_Source\PSoC4/LCD_Char.c ****     LCD_Char_WriteControl(LCD_Char_RESET_CURSOR_POSITION);  /* Set Cursor to 0,0 */
  94              		.loc 1 74 0
  95 005e 0320     		movs	r0, #3
  96 0060 FFF7FEFF 		bl	LCD_Char_WriteControl
  75:Generated_Source\PSoC4/LCD_Char.c ****     CyDelay(5u);
ARM GAS  C:\Users\quint\AppData\Local\Temp\ccOXFVSh.s 			page 4


  97              		.loc 1 75 0
  98 0064 0520     		movs	r0, #5
  99 0066 FFF7FEFF 		bl	CyDelay
  76:Generated_Source\PSoC4/LCD_Char.c **** 
  77:Generated_Source\PSoC4/LCD_Char.c ****     #if(LCD_Char_CUSTOM_CHAR_SET != LCD_Char_NONE)
  78:Generated_Source\PSoC4/LCD_Char.c ****         LCD_Char_LoadCustomFonts(LCD_Char_customFonts);
 100              		.loc 1 78 0
 101 006a 034B     		ldr	r3, .L2
 102 006c 1800     		movs	r0, r3
 103 006e FFF7FEFF 		bl	LCD_Char_LoadCustomFonts
  79:Generated_Source\PSoC4/LCD_Char.c ****     #endif /* LCD_Char_CUSTOM_CHAR_SET != LCD_Char_NONE */
  80:Generated_Source\PSoC4/LCD_Char.c **** }
 104              		.loc 1 80 0
 105 0072 C046     		nop
 106 0074 BD46     		mov	sp, r7
 107              		@ sp needed
 108 0076 80BD     		pop	{r7, pc}
 109              	.L3:
 110              		.align	2
 111              	.L2:
 112 0078 00000000 		.word	LCD_Char_customFonts
 113              		.cfi_endproc
 114              	.LFE0:
 115              		.size	LCD_Char_Init, .-LCD_Char_Init
 116              		.section	.text.LCD_Char_Enable,"ax",%progbits
 117              		.align	2
 118              		.global	LCD_Char_Enable
 119              		.code	16
 120              		.thumb_func
 121              		.type	LCD_Char_Enable, %function
 122              	LCD_Char_Enable:
 123              	.LFB1:
  81:Generated_Source\PSoC4/LCD_Char.c **** 
  82:Generated_Source\PSoC4/LCD_Char.c **** 
  83:Generated_Source\PSoC4/LCD_Char.c **** /*******************************************************************************
  84:Generated_Source\PSoC4/LCD_Char.c **** * Function Name: LCD_Char_Enable
  85:Generated_Source\PSoC4/LCD_Char.c **** ********************************************************************************
  86:Generated_Source\PSoC4/LCD_Char.c **** *
  87:Generated_Source\PSoC4/LCD_Char.c **** * Summary:
  88:Generated_Source\PSoC4/LCD_Char.c **** *  Turns on the display.
  89:Generated_Source\PSoC4/LCD_Char.c **** *
  90:Generated_Source\PSoC4/LCD_Char.c **** * Parameters:
  91:Generated_Source\PSoC4/LCD_Char.c **** *  None.
  92:Generated_Source\PSoC4/LCD_Char.c **** *
  93:Generated_Source\PSoC4/LCD_Char.c **** * Return:
  94:Generated_Source\PSoC4/LCD_Char.c **** *  None.
  95:Generated_Source\PSoC4/LCD_Char.c **** *
  96:Generated_Source\PSoC4/LCD_Char.c **** * Reentrant:
  97:Generated_Source\PSoC4/LCD_Char.c **** *  No.
  98:Generated_Source\PSoC4/LCD_Char.c **** *
  99:Generated_Source\PSoC4/LCD_Char.c **** * Theory:
 100:Generated_Source\PSoC4/LCD_Char.c **** *  This function has no effect when it is called the first time as
 101:Generated_Source\PSoC4/LCD_Char.c **** *  LCD_Char_Init() turns on the LCD.
 102:Generated_Source\PSoC4/LCD_Char.c **** *
 103:Generated_Source\PSoC4/LCD_Char.c **** *******************************************************************************/
 104:Generated_Source\PSoC4/LCD_Char.c **** void LCD_Char_Enable(void) 
 105:Generated_Source\PSoC4/LCD_Char.c **** {
ARM GAS  C:\Users\quint\AppData\Local\Temp\ccOXFVSh.s 			page 5


 124              		.loc 1 105 0
 125              		.cfi_startproc
 126              		@ args = 0, pretend = 0, frame = 0
 127              		@ frame_needed = 1, uses_anonymous_args = 0
 128 0000 80B5     		push	{r7, lr}
 129              		.cfi_def_cfa_offset 8
 130              		.cfi_offset 7, -8
 131              		.cfi_offset 14, -4
 132 0002 00AF     		add	r7, sp, #0
 133              		.cfi_def_cfa_register 7
 106:Generated_Source\PSoC4/LCD_Char.c ****     LCD_Char_DisplayOn();
 134              		.loc 1 106 0
 135 0004 0C20     		movs	r0, #12
 136 0006 FFF7FEFF 		bl	LCD_Char_WriteControl
 107:Generated_Source\PSoC4/LCD_Char.c ****     LCD_Char_enableState = 1u;
 137              		.loc 1 107 0
 138 000a 034B     		ldr	r3, .L5
 139 000c 0122     		movs	r2, #1
 140 000e 1A70     		strb	r2, [r3]
 108:Generated_Source\PSoC4/LCD_Char.c **** }
 141              		.loc 1 108 0
 142 0010 C046     		nop
 143 0012 BD46     		mov	sp, r7
 144              		@ sp needed
 145 0014 80BD     		pop	{r7, pc}
 146              	.L6:
 147 0016 C046     		.align	2
 148              	.L5:
 149 0018 00000000 		.word	LCD_Char_enableState
 150              		.cfi_endproc
 151              	.LFE1:
 152              		.size	LCD_Char_Enable, .-LCD_Char_Enable
 153              		.section	.text.LCD_Char_Start,"ax",%progbits
 154              		.align	2
 155              		.global	LCD_Char_Start
 156              		.code	16
 157              		.thumb_func
 158              		.type	LCD_Char_Start, %function
 159              	LCD_Char_Start:
 160              	.LFB2:
 109:Generated_Source\PSoC4/LCD_Char.c **** 
 110:Generated_Source\PSoC4/LCD_Char.c **** 
 111:Generated_Source\PSoC4/LCD_Char.c **** /*******************************************************************************
 112:Generated_Source\PSoC4/LCD_Char.c **** * Function Name: LCD_Char_Start
 113:Generated_Source\PSoC4/LCD_Char.c **** ********************************************************************************
 114:Generated_Source\PSoC4/LCD_Char.c **** *
 115:Generated_Source\PSoC4/LCD_Char.c **** * Summary:
 116:Generated_Source\PSoC4/LCD_Char.c **** *  Performs initialization required for the components normal work.
 117:Generated_Source\PSoC4/LCD_Char.c **** *  This function initializes the LCD hardware module as follows:
 118:Generated_Source\PSoC4/LCD_Char.c **** *        Enables 4-bit interface
 119:Generated_Source\PSoC4/LCD_Char.c **** *        Clears the display
 120:Generated_Source\PSoC4/LCD_Char.c **** *        Enables auto cursor increment
 121:Generated_Source\PSoC4/LCD_Char.c **** *        Resets the cursor to start position
 122:Generated_Source\PSoC4/LCD_Char.c **** *  Also, it loads a custom character set to the LCD if it was defined in the customizer.
 123:Generated_Source\PSoC4/LCD_Char.c **** *  If it was not the first call in this project, then it just turns on the
 124:Generated_Source\PSoC4/LCD_Char.c **** *  display
 125:Generated_Source\PSoC4/LCD_Char.c **** *
ARM GAS  C:\Users\quint\AppData\Local\Temp\ccOXFVSh.s 			page 6


 126:Generated_Source\PSoC4/LCD_Char.c **** *
 127:Generated_Source\PSoC4/LCD_Char.c **** * Parameters:
 128:Generated_Source\PSoC4/LCD_Char.c **** *  LCD_Char_initVar - global variable.
 129:Generated_Source\PSoC4/LCD_Char.c **** *
 130:Generated_Source\PSoC4/LCD_Char.c **** * Return:
 131:Generated_Source\PSoC4/LCD_Char.c **** *  LCD_Char_initVar - global variable.
 132:Generated_Source\PSoC4/LCD_Char.c **** *
 133:Generated_Source\PSoC4/LCD_Char.c **** * Reentrant:
 134:Generated_Source\PSoC4/LCD_Char.c **** *  No.
 135:Generated_Source\PSoC4/LCD_Char.c **** *
 136:Generated_Source\PSoC4/LCD_Char.c **** *******************************************************************************/
 137:Generated_Source\PSoC4/LCD_Char.c **** void LCD_Char_Start(void) 
 138:Generated_Source\PSoC4/LCD_Char.c **** {
 161              		.loc 1 138 0
 162              		.cfi_startproc
 163              		@ args = 0, pretend = 0, frame = 0
 164              		@ frame_needed = 1, uses_anonymous_args = 0
 165 0000 80B5     		push	{r7, lr}
 166              		.cfi_def_cfa_offset 8
 167              		.cfi_offset 7, -8
 168              		.cfi_offset 14, -4
 169 0002 00AF     		add	r7, sp, #0
 170              		.cfi_def_cfa_register 7
 139:Generated_Source\PSoC4/LCD_Char.c ****     /* If not initialized, perform initialization */
 140:Generated_Source\PSoC4/LCD_Char.c ****     if(LCD_Char_initVar == 0u)
 171              		.loc 1 140 0
 172 0004 064B     		ldr	r3, .L9
 173 0006 1B78     		ldrb	r3, [r3]
 174 0008 002B     		cmp	r3, #0
 175 000a 04D1     		bne	.L8
 141:Generated_Source\PSoC4/LCD_Char.c ****     {
 142:Generated_Source\PSoC4/LCD_Char.c ****         LCD_Char_Init();
 176              		.loc 1 142 0
 177 000c FFF7FEFF 		bl	LCD_Char_Init
 143:Generated_Source\PSoC4/LCD_Char.c ****         LCD_Char_initVar = 1u;
 178              		.loc 1 143 0
 179 0010 034B     		ldr	r3, .L9
 180 0012 0122     		movs	r2, #1
 181 0014 1A70     		strb	r2, [r3]
 182              	.L8:
 144:Generated_Source\PSoC4/LCD_Char.c ****     }
 145:Generated_Source\PSoC4/LCD_Char.c **** 
 146:Generated_Source\PSoC4/LCD_Char.c ****     /* Turn on the LCD */
 147:Generated_Source\PSoC4/LCD_Char.c ****     LCD_Char_Enable();
 183              		.loc 1 147 0
 184 0016 FFF7FEFF 		bl	LCD_Char_Enable
 148:Generated_Source\PSoC4/LCD_Char.c **** }
 185              		.loc 1 148 0
 186 001a C046     		nop
 187 001c BD46     		mov	sp, r7
 188              		@ sp needed
 189 001e 80BD     		pop	{r7, pc}
 190              	.L10:
 191              		.align	2
 192              	.L9:
 193 0020 00000000 		.word	LCD_Char_initVar
 194              		.cfi_endproc
ARM GAS  C:\Users\quint\AppData\Local\Temp\ccOXFVSh.s 			page 7


 195              	.LFE2:
 196              		.size	LCD_Char_Start, .-LCD_Char_Start
 197              		.section	.text.LCD_Char_Stop,"ax",%progbits
 198              		.align	2
 199              		.global	LCD_Char_Stop
 200              		.code	16
 201              		.thumb_func
 202              		.type	LCD_Char_Stop, %function
 203              	LCD_Char_Stop:
 204              	.LFB3:
 149:Generated_Source\PSoC4/LCD_Char.c **** 
 150:Generated_Source\PSoC4/LCD_Char.c **** 
 151:Generated_Source\PSoC4/LCD_Char.c **** /*******************************************************************************
 152:Generated_Source\PSoC4/LCD_Char.c **** * Function Name: LCD_Char_Stop
 153:Generated_Source\PSoC4/LCD_Char.c **** ********************************************************************************
 154:Generated_Source\PSoC4/LCD_Char.c **** *
 155:Generated_Source\PSoC4/LCD_Char.c **** * Summary:
 156:Generated_Source\PSoC4/LCD_Char.c **** *  Turns off the display of the LCD screen.
 157:Generated_Source\PSoC4/LCD_Char.c **** *
 158:Generated_Source\PSoC4/LCD_Char.c **** * Parameters:
 159:Generated_Source\PSoC4/LCD_Char.c **** *  None.
 160:Generated_Source\PSoC4/LCD_Char.c **** *
 161:Generated_Source\PSoC4/LCD_Char.c **** * Return:
 162:Generated_Source\PSoC4/LCD_Char.c **** *  None.
 163:Generated_Source\PSoC4/LCD_Char.c **** *
 164:Generated_Source\PSoC4/LCD_Char.c **** * Reentrant:
 165:Generated_Source\PSoC4/LCD_Char.c **** *  No.
 166:Generated_Source\PSoC4/LCD_Char.c **** *
 167:Generated_Source\PSoC4/LCD_Char.c **** *******************************************************************************/
 168:Generated_Source\PSoC4/LCD_Char.c **** void LCD_Char_Stop(void) 
 169:Generated_Source\PSoC4/LCD_Char.c **** {
 205              		.loc 1 169 0
 206              		.cfi_startproc
 207              		@ args = 0, pretend = 0, frame = 0
 208              		@ frame_needed = 1, uses_anonymous_args = 0
 209 0000 80B5     		push	{r7, lr}
 210              		.cfi_def_cfa_offset 8
 211              		.cfi_offset 7, -8
 212              		.cfi_offset 14, -4
 213 0002 00AF     		add	r7, sp, #0
 214              		.cfi_def_cfa_register 7
 170:Generated_Source\PSoC4/LCD_Char.c ****     /* Calls LCD Off Macro */
 171:Generated_Source\PSoC4/LCD_Char.c ****     LCD_Char_DisplayOff();
 215              		.loc 1 171 0
 216 0004 0820     		movs	r0, #8
 217 0006 FFF7FEFF 		bl	LCD_Char_WriteControl
 172:Generated_Source\PSoC4/LCD_Char.c ****     LCD_Char_enableState = 0u;
 218              		.loc 1 172 0
 219 000a 034B     		ldr	r3, .L12
 220 000c 0022     		movs	r2, #0
 221 000e 1A70     		strb	r2, [r3]
 173:Generated_Source\PSoC4/LCD_Char.c **** }
 222              		.loc 1 173 0
 223 0010 C046     		nop
 224 0012 BD46     		mov	sp, r7
 225              		@ sp needed
 226 0014 80BD     		pop	{r7, pc}
ARM GAS  C:\Users\quint\AppData\Local\Temp\ccOXFVSh.s 			page 8


 227              	.L13:
 228 0016 C046     		.align	2
 229              	.L12:
 230 0018 00000000 		.word	LCD_Char_enableState
 231              		.cfi_endproc
 232              	.LFE3:
 233              		.size	LCD_Char_Stop, .-LCD_Char_Stop
 234              		.section	.text.LCD_Char_Position,"ax",%progbits
 235              		.align	2
 236              		.global	LCD_Char_Position
 237              		.code	16
 238              		.thumb_func
 239              		.type	LCD_Char_Position, %function
 240              	LCD_Char_Position:
 241              	.LFB4:
 174:Generated_Source\PSoC4/LCD_Char.c **** 
 175:Generated_Source\PSoC4/LCD_Char.c **** 
 176:Generated_Source\PSoC4/LCD_Char.c **** /*******************************************************************************
 177:Generated_Source\PSoC4/LCD_Char.c **** *  Function Name: LCD_Char_Position
 178:Generated_Source\PSoC4/LCD_Char.c **** ********************************************************************************
 179:Generated_Source\PSoC4/LCD_Char.c **** *
 180:Generated_Source\PSoC4/LCD_Char.c **** * Summary:
 181:Generated_Source\PSoC4/LCD_Char.c **** *  Moves the active cursor location to a point specified by the input arguments
 182:Generated_Source\PSoC4/LCD_Char.c **** *
 183:Generated_Source\PSoC4/LCD_Char.c **** * Parameters:
 184:Generated_Source\PSoC4/LCD_Char.c **** *  row:    Specific row of LCD module to be written
 185:Generated_Source\PSoC4/LCD_Char.c **** *  column: Column of LCD module to be written
 186:Generated_Source\PSoC4/LCD_Char.c **** *
 187:Generated_Source\PSoC4/LCD_Char.c **** * Return:
 188:Generated_Source\PSoC4/LCD_Char.c **** *  None.
 189:Generated_Source\PSoC4/LCD_Char.c **** *
 190:Generated_Source\PSoC4/LCD_Char.c **** * Note:
 191:Generated_Source\PSoC4/LCD_Char.c **** *  This only applies for LCD displays that use the 2X40 address mode.
 192:Generated_Source\PSoC4/LCD_Char.c **** *  In this case Row 2 starts with a 0x28 offset from Row 1.
 193:Generated_Source\PSoC4/LCD_Char.c **** *  When there are more than 2 rows, each row must be fewer than 20 characters.
 194:Generated_Source\PSoC4/LCD_Char.c **** *
 195:Generated_Source\PSoC4/LCD_Char.c **** *******************************************************************************/
 196:Generated_Source\PSoC4/LCD_Char.c **** void LCD_Char_Position(uint8 row, uint8 column) 
 197:Generated_Source\PSoC4/LCD_Char.c **** {
 242              		.loc 1 197 0
 243              		.cfi_startproc
 244              		@ args = 0, pretend = 0, frame = 8
 245              		@ frame_needed = 1, uses_anonymous_args = 0
 246 0000 80B5     		push	{r7, lr}
 247              		.cfi_def_cfa_offset 8
 248              		.cfi_offset 7, -8
 249              		.cfi_offset 14, -4
 250 0002 82B0     		sub	sp, sp, #8
 251              		.cfi_def_cfa_offset 16
 252 0004 00AF     		add	r7, sp, #0
 253              		.cfi_def_cfa_register 7
 254 0006 0200     		movs	r2, r0
 255 0008 FB1D     		adds	r3, r7, #7
 256 000a 1A70     		strb	r2, [r3]
 257 000c BB1D     		adds	r3, r7, #6
 258 000e 0A1C     		adds	r2, r1, #0
 259 0010 1A70     		strb	r2, [r3]
ARM GAS  C:\Users\quint\AppData\Local\Temp\ccOXFVSh.s 			page 9


 198:Generated_Source\PSoC4/LCD_Char.c ****     switch (row)
 260              		.loc 1 198 0
 261 0012 FB1D     		adds	r3, r7, #7
 262 0014 1B78     		ldrb	r3, [r3]
 263 0016 012B     		cmp	r3, #1
 264 0018 10D0     		beq	.L16
 265 001a 02DC     		bgt	.L17
 266 001c 002B     		cmp	r3, #0
 267 001e 05D0     		beq	.L18
 199:Generated_Source\PSoC4/LCD_Char.c ****     {
 200:Generated_Source\PSoC4/LCD_Char.c ****         case (uint8)0:
 201:Generated_Source\PSoC4/LCD_Char.c ****             LCD_Char_WriteControl(LCD_Char_ROW_0_START + column);
 202:Generated_Source\PSoC4/LCD_Char.c ****             break;
 203:Generated_Source\PSoC4/LCD_Char.c ****         case (uint8) 1:
 204:Generated_Source\PSoC4/LCD_Char.c ****             LCD_Char_WriteControl(LCD_Char_ROW_1_START + column);
 205:Generated_Source\PSoC4/LCD_Char.c ****             break;
 206:Generated_Source\PSoC4/LCD_Char.c ****         case (uint8) 2:
 207:Generated_Source\PSoC4/LCD_Char.c ****             LCD_Char_WriteControl(LCD_Char_ROW_2_START + column);
 208:Generated_Source\PSoC4/LCD_Char.c ****             break;
 209:Generated_Source\PSoC4/LCD_Char.c ****         case (uint8) 3:
 210:Generated_Source\PSoC4/LCD_Char.c ****             LCD_Char_WriteControl(LCD_Char_ROW_3_START + column);
 211:Generated_Source\PSoC4/LCD_Char.c ****             break;
 212:Generated_Source\PSoC4/LCD_Char.c ****         default:
 213:Generated_Source\PSoC4/LCD_Char.c ****             /* if default case is hit, invalid row argument was passed.*/
 214:Generated_Source\PSoC4/LCD_Char.c ****             break;
 268              		.loc 1 214 0
 269 0020 24E0     		b	.L21
 270              	.L17:
 198:Generated_Source\PSoC4/LCD_Char.c ****     switch (row)
 271              		.loc 1 198 0
 272 0022 022B     		cmp	r3, #2
 273 0024 12D0     		beq	.L19
 274 0026 032B     		cmp	r3, #3
 275 0028 18D0     		beq	.L20
 276              		.loc 1 214 0
 277 002a 1FE0     		b	.L21
 278              	.L18:
 201:Generated_Source\PSoC4/LCD_Char.c ****             break;
 279              		.loc 1 201 0
 280 002c BB1D     		adds	r3, r7, #6
 281 002e 1B78     		ldrb	r3, [r3]
 282 0030 803B     		subs	r3, r3, #128
 283 0032 DBB2     		uxtb	r3, r3
 284 0034 1800     		movs	r0, r3
 285 0036 FFF7FEFF 		bl	LCD_Char_WriteControl
 202:Generated_Source\PSoC4/LCD_Char.c ****         case (uint8) 1:
 286              		.loc 1 202 0
 287 003a 17E0     		b	.L21
 288              	.L16:
 204:Generated_Source\PSoC4/LCD_Char.c ****             break;
 289              		.loc 1 204 0
 290 003c BB1D     		adds	r3, r7, #6
 291 003e 1B78     		ldrb	r3, [r3]
 292 0040 403B     		subs	r3, r3, #64
 293 0042 DBB2     		uxtb	r3, r3
 294 0044 1800     		movs	r0, r3
 295 0046 FFF7FEFF 		bl	LCD_Char_WriteControl
ARM GAS  C:\Users\quint\AppData\Local\Temp\ccOXFVSh.s 			page 10


 205:Generated_Source\PSoC4/LCD_Char.c ****         case (uint8) 2:
 296              		.loc 1 205 0
 297 004a 0FE0     		b	.L21
 298              	.L19:
 207:Generated_Source\PSoC4/LCD_Char.c ****             break;
 299              		.loc 1 207 0
 300 004c BB1D     		adds	r3, r7, #6
 301 004e 1B78     		ldrb	r3, [r3]
 302 0050 6C3B     		subs	r3, r3, #108
 303 0052 DBB2     		uxtb	r3, r3
 304 0054 1800     		movs	r0, r3
 305 0056 FFF7FEFF 		bl	LCD_Char_WriteControl
 208:Generated_Source\PSoC4/LCD_Char.c ****         case (uint8) 3:
 306              		.loc 1 208 0
 307 005a 07E0     		b	.L21
 308              	.L20:
 210:Generated_Source\PSoC4/LCD_Char.c ****             break;
 309              		.loc 1 210 0
 310 005c BB1D     		adds	r3, r7, #6
 311 005e 1B78     		ldrb	r3, [r3]
 312 0060 2C3B     		subs	r3, r3, #44
 313 0062 DBB2     		uxtb	r3, r3
 314 0064 1800     		movs	r0, r3
 315 0066 FFF7FEFF 		bl	LCD_Char_WriteControl
 211:Generated_Source\PSoC4/LCD_Char.c ****         default:
 316              		.loc 1 211 0
 317 006a C046     		nop
 318              	.L21:
 215:Generated_Source\PSoC4/LCD_Char.c ****     }
 216:Generated_Source\PSoC4/LCD_Char.c **** }
 319              		.loc 1 216 0
 320 006c C046     		nop
 321 006e BD46     		mov	sp, r7
 322 0070 02B0     		add	sp, sp, #8
 323              		@ sp needed
 324 0072 80BD     		pop	{r7, pc}
 325              		.cfi_endproc
 326              	.LFE4:
 327              		.size	LCD_Char_Position, .-LCD_Char_Position
 328              		.section	.text.LCD_Char_PrintString,"ax",%progbits
 329              		.align	2
 330              		.global	LCD_Char_PrintString
 331              		.code	16
 332              		.thumb_func
 333              		.type	LCD_Char_PrintString, %function
 334              	LCD_Char_PrintString:
 335              	.LFB5:
 217:Generated_Source\PSoC4/LCD_Char.c **** 
 218:Generated_Source\PSoC4/LCD_Char.c **** 
 219:Generated_Source\PSoC4/LCD_Char.c **** /*******************************************************************************
 220:Generated_Source\PSoC4/LCD_Char.c **** * Function Name: LCD_Char_PrintString
 221:Generated_Source\PSoC4/LCD_Char.c **** ********************************************************************************
 222:Generated_Source\PSoC4/LCD_Char.c **** *
 223:Generated_Source\PSoC4/LCD_Char.c **** * Summary:
 224:Generated_Source\PSoC4/LCD_Char.c **** *  Writes a zero terminated string to the LCD.
 225:Generated_Source\PSoC4/LCD_Char.c **** *
 226:Generated_Source\PSoC4/LCD_Char.c **** * Parameters:
ARM GAS  C:\Users\quint\AppData\Local\Temp\ccOXFVSh.s 			page 11


 227:Generated_Source\PSoC4/LCD_Char.c **** *  string: Pointer to head of char8 array to be written to the LCD module
 228:Generated_Source\PSoC4/LCD_Char.c **** *
 229:Generated_Source\PSoC4/LCD_Char.c **** * Return:
 230:Generated_Source\PSoC4/LCD_Char.c **** *  None.
 231:Generated_Source\PSoC4/LCD_Char.c **** *
 232:Generated_Source\PSoC4/LCD_Char.c **** *******************************************************************************/
 233:Generated_Source\PSoC4/LCD_Char.c **** void LCD_Char_PrintString(char8 const string[]) 
 234:Generated_Source\PSoC4/LCD_Char.c **** {
 336              		.loc 1 234 0
 337              		.cfi_startproc
 338              		@ args = 0, pretend = 0, frame = 16
 339              		@ frame_needed = 1, uses_anonymous_args = 0
 340 0000 80B5     		push	{r7, lr}
 341              		.cfi_def_cfa_offset 8
 342              		.cfi_offset 7, -8
 343              		.cfi_offset 14, -4
 344 0002 84B0     		sub	sp, sp, #16
 345              		.cfi_def_cfa_offset 24
 346 0004 00AF     		add	r7, sp, #0
 347              		.cfi_def_cfa_register 7
 348 0006 7860     		str	r0, [r7, #4]
 235:Generated_Source\PSoC4/LCD_Char.c ****     uint8 indexU8 = 1u;
 349              		.loc 1 235 0
 350 0008 0F23     		movs	r3, #15
 351 000a FB18     		adds	r3, r7, r3
 352 000c 0122     		movs	r2, #1
 353 000e 1A70     		strb	r2, [r3]
 236:Generated_Source\PSoC4/LCD_Char.c ****     char8 current = *string;
 354              		.loc 1 236 0
 355 0010 0E23     		movs	r3, #14
 356 0012 FB18     		adds	r3, r7, r3
 357 0014 7A68     		ldr	r2, [r7, #4]
 358 0016 1278     		ldrb	r2, [r2]
 359 0018 1A70     		strb	r2, [r3]
 237:Generated_Source\PSoC4/LCD_Char.c **** 
 238:Generated_Source\PSoC4/LCD_Char.c ****     /* Until null is reached, print next character */
 239:Generated_Source\PSoC4/LCD_Char.c ****     while((char8) '\0' != current)
 360              		.loc 1 239 0
 361 001a 15E0     		b	.L23
 362              	.L24:
 240:Generated_Source\PSoC4/LCD_Char.c ****     {
 241:Generated_Source\PSoC4/LCD_Char.c ****         LCD_Char_WriteData((uint8)current);
 363              		.loc 1 241 0
 364 001c 0E23     		movs	r3, #14
 365 001e FB18     		adds	r3, r7, r3
 366 0020 1B78     		ldrb	r3, [r3]
 367 0022 1800     		movs	r0, r3
 368 0024 FFF7FEFF 		bl	LCD_Char_WriteData
 242:Generated_Source\PSoC4/LCD_Char.c ****         current = string[indexU8];
 369              		.loc 1 242 0
 370 0028 0F23     		movs	r3, #15
 371 002a FB18     		adds	r3, r7, r3
 372 002c 1B78     		ldrb	r3, [r3]
 373 002e 7A68     		ldr	r2, [r7, #4]
 374 0030 D218     		adds	r2, r2, r3
 375 0032 0E23     		movs	r3, #14
 376 0034 FB18     		adds	r3, r7, r3
ARM GAS  C:\Users\quint\AppData\Local\Temp\ccOXFVSh.s 			page 12


 377 0036 1278     		ldrb	r2, [r2]
 378 0038 1A70     		strb	r2, [r3]
 243:Generated_Source\PSoC4/LCD_Char.c ****         indexU8++;
 379              		.loc 1 243 0
 380 003a 0F23     		movs	r3, #15
 381 003c FB18     		adds	r3, r7, r3
 382 003e 1A78     		ldrb	r2, [r3]
 383 0040 0F23     		movs	r3, #15
 384 0042 FB18     		adds	r3, r7, r3
 385 0044 0132     		adds	r2, r2, #1
 386 0046 1A70     		strb	r2, [r3]
 387              	.L23:
 239:Generated_Source\PSoC4/LCD_Char.c ****     {
 388              		.loc 1 239 0
 389 0048 0E23     		movs	r3, #14
 390 004a FB18     		adds	r3, r7, r3
 391 004c 1B78     		ldrb	r3, [r3]
 392 004e 002B     		cmp	r3, #0
 393 0050 E4D1     		bne	.L24
 244:Generated_Source\PSoC4/LCD_Char.c ****     }
 245:Generated_Source\PSoC4/LCD_Char.c **** }
 394              		.loc 1 245 0
 395 0052 C046     		nop
 396 0054 BD46     		mov	sp, r7
 397 0056 04B0     		add	sp, sp, #16
 398              		@ sp needed
 399 0058 80BD     		pop	{r7, pc}
 400              		.cfi_endproc
 401              	.LFE5:
 402              		.size	LCD_Char_PrintString, .-LCD_Char_PrintString
 403 005a C046     		.section	.text.LCD_Char_PutChar,"ax",%progbits
 404              		.align	2
 405              		.global	LCD_Char_PutChar
 406              		.code	16
 407              		.thumb_func
 408              		.type	LCD_Char_PutChar, %function
 409              	LCD_Char_PutChar:
 410              	.LFB6:
 246:Generated_Source\PSoC4/LCD_Char.c **** 
 247:Generated_Source\PSoC4/LCD_Char.c **** 
 248:Generated_Source\PSoC4/LCD_Char.c **** /*******************************************************************************
 249:Generated_Source\PSoC4/LCD_Char.c **** *  Function Name: LCD_Char_PutChar
 250:Generated_Source\PSoC4/LCD_Char.c **** ********************************************************************************
 251:Generated_Source\PSoC4/LCD_Char.c **** *
 252:Generated_Source\PSoC4/LCD_Char.c **** * Summary:
 253:Generated_Source\PSoC4/LCD_Char.c **** *  Writes a single character to the current cursor position of the LCD module.
 254:Generated_Source\PSoC4/LCD_Char.c **** *  Custom character names (_CUSTOM_0 through
 255:Generated_Source\PSoC4/LCD_Char.c **** *  _CUSTOM_7) are acceptable as inputs.
 256:Generated_Source\PSoC4/LCD_Char.c **** *
 257:Generated_Source\PSoC4/LCD_Char.c **** * Parameters:
 258:Generated_Source\PSoC4/LCD_Char.c **** *  character: Character to be written to LCD
 259:Generated_Source\PSoC4/LCD_Char.c **** *
 260:Generated_Source\PSoC4/LCD_Char.c **** * Return:
 261:Generated_Source\PSoC4/LCD_Char.c **** *  None.
 262:Generated_Source\PSoC4/LCD_Char.c **** *
 263:Generated_Source\PSoC4/LCD_Char.c **** *******************************************************************************/
 264:Generated_Source\PSoC4/LCD_Char.c **** void LCD_Char_PutChar(char8 character) 
ARM GAS  C:\Users\quint\AppData\Local\Temp\ccOXFVSh.s 			page 13


 265:Generated_Source\PSoC4/LCD_Char.c **** {
 411              		.loc 1 265 0
 412              		.cfi_startproc
 413              		@ args = 0, pretend = 0, frame = 8
 414              		@ frame_needed = 1, uses_anonymous_args = 0
 415 0000 80B5     		push	{r7, lr}
 416              		.cfi_def_cfa_offset 8
 417              		.cfi_offset 7, -8
 418              		.cfi_offset 14, -4
 419 0002 82B0     		sub	sp, sp, #8
 420              		.cfi_def_cfa_offset 16
 421 0004 00AF     		add	r7, sp, #0
 422              		.cfi_def_cfa_register 7
 423 0006 0200     		movs	r2, r0
 424 0008 FB1D     		adds	r3, r7, #7
 425 000a 1A70     		strb	r2, [r3]
 266:Generated_Source\PSoC4/LCD_Char.c ****     LCD_Char_WriteData((uint8)character);
 426              		.loc 1 266 0
 427 000c FB1D     		adds	r3, r7, #7
 428 000e 1B78     		ldrb	r3, [r3]
 429 0010 1800     		movs	r0, r3
 430 0012 FFF7FEFF 		bl	LCD_Char_WriteData
 267:Generated_Source\PSoC4/LCD_Char.c **** }
 431              		.loc 1 267 0
 432 0016 C046     		nop
 433 0018 BD46     		mov	sp, r7
 434 001a 02B0     		add	sp, sp, #8
 435              		@ sp needed
 436 001c 80BD     		pop	{r7, pc}
 437              		.cfi_endproc
 438              	.LFE6:
 439              		.size	LCD_Char_PutChar, .-LCD_Char_PutChar
 440 001e C046     		.section	.text.LCD_Char_WriteData,"ax",%progbits
 441              		.align	2
 442              		.global	LCD_Char_WriteData
 443              		.code	16
 444              		.thumb_func
 445              		.type	LCD_Char_WriteData, %function
 446              	LCD_Char_WriteData:
 447              	.LFB7:
 268:Generated_Source\PSoC4/LCD_Char.c **** 
 269:Generated_Source\PSoC4/LCD_Char.c **** 
 270:Generated_Source\PSoC4/LCD_Char.c **** /*******************************************************************************
 271:Generated_Source\PSoC4/LCD_Char.c **** *  Function Name: LCD_Char_WriteData
 272:Generated_Source\PSoC4/LCD_Char.c **** ********************************************************************************
 273:Generated_Source\PSoC4/LCD_Char.c **** *
 274:Generated_Source\PSoC4/LCD_Char.c **** * Summary:
 275:Generated_Source\PSoC4/LCD_Char.c **** *  Writes a data byte to the LCD module's Data Display RAM.
 276:Generated_Source\PSoC4/LCD_Char.c **** *
 277:Generated_Source\PSoC4/LCD_Char.c **** * Parameters:
 278:Generated_Source\PSoC4/LCD_Char.c **** *  dByte: Byte to be written to the LCD module
 279:Generated_Source\PSoC4/LCD_Char.c **** *
 280:Generated_Source\PSoC4/LCD_Char.c **** * Return:
 281:Generated_Source\PSoC4/LCD_Char.c **** *  None.
 282:Generated_Source\PSoC4/LCD_Char.c **** *
 283:Generated_Source\PSoC4/LCD_Char.c **** *******************************************************************************/
 284:Generated_Source\PSoC4/LCD_Char.c **** void LCD_Char_WriteData(uint8 dByte) 
ARM GAS  C:\Users\quint\AppData\Local\Temp\ccOXFVSh.s 			page 14


 285:Generated_Source\PSoC4/LCD_Char.c **** {
 448              		.loc 1 285 0
 449              		.cfi_startproc
 450              		@ args = 0, pretend = 0, frame = 16
 451              		@ frame_needed = 1, uses_anonymous_args = 0
 452 0000 80B5     		push	{r7, lr}
 453              		.cfi_def_cfa_offset 8
 454              		.cfi_offset 7, -8
 455              		.cfi_offset 14, -4
 456 0002 84B0     		sub	sp, sp, #16
 457              		.cfi_def_cfa_offset 24
 458 0004 00AF     		add	r7, sp, #0
 459              		.cfi_def_cfa_register 7
 460 0006 0200     		movs	r2, r0
 461 0008 FB1D     		adds	r3, r7, #7
 462 000a 1A70     		strb	r2, [r3]
 286:Generated_Source\PSoC4/LCD_Char.c ****     uint8 nibble;
 287:Generated_Source\PSoC4/LCD_Char.c **** 
 288:Generated_Source\PSoC4/LCD_Char.c ****     LCD_Char_IsReady();
 463              		.loc 1 288 0
 464 000c FFF7FEFF 		bl	LCD_Char_IsReady
 289:Generated_Source\PSoC4/LCD_Char.c ****     nibble = dByte >> LCD_Char_NIBBLE_SHIFT;
 465              		.loc 1 289 0
 466 0010 0F23     		movs	r3, #15
 467 0012 FB18     		adds	r3, r7, r3
 468 0014 FA1D     		adds	r2, r7, #7
 469 0016 1278     		ldrb	r2, [r2]
 470 0018 1209     		lsrs	r2, r2, #4
 471 001a 1A70     		strb	r2, [r3]
 290:Generated_Source\PSoC4/LCD_Char.c **** 
 291:Generated_Source\PSoC4/LCD_Char.c ****     /* Write high nibble */
 292:Generated_Source\PSoC4/LCD_Char.c ****     LCD_Char_WrDatNib(nibble);
 472              		.loc 1 292 0
 473 001c 0F23     		movs	r3, #15
 474 001e FB18     		adds	r3, r7, r3
 475 0020 1B78     		ldrb	r3, [r3]
 476 0022 1800     		movs	r0, r3
 477 0024 FFF7FEFF 		bl	LCD_Char_WrDatNib
 293:Generated_Source\PSoC4/LCD_Char.c **** 
 294:Generated_Source\PSoC4/LCD_Char.c ****     nibble = dByte & LCD_Char_NIBBLE_MASK;
 478              		.loc 1 294 0
 479 0028 0F23     		movs	r3, #15
 480 002a FB18     		adds	r3, r7, r3
 481 002c FA1D     		adds	r2, r7, #7
 482 002e 1278     		ldrb	r2, [r2]
 483 0030 0F21     		movs	r1, #15
 484 0032 0A40     		ands	r2, r1
 485 0034 1A70     		strb	r2, [r3]
 295:Generated_Source\PSoC4/LCD_Char.c ****     /* Write low nibble */
 296:Generated_Source\PSoC4/LCD_Char.c ****     LCD_Char_WrDatNib(nibble);
 486              		.loc 1 296 0
 487 0036 0F23     		movs	r3, #15
 488 0038 FB18     		adds	r3, r7, r3
 489 003a 1B78     		ldrb	r3, [r3]
 490 003c 1800     		movs	r0, r3
 491 003e FFF7FEFF 		bl	LCD_Char_WrDatNib
 297:Generated_Source\PSoC4/LCD_Char.c **** }
ARM GAS  C:\Users\quint\AppData\Local\Temp\ccOXFVSh.s 			page 15


 492              		.loc 1 297 0
 493 0042 C046     		nop
 494 0044 BD46     		mov	sp, r7
 495 0046 04B0     		add	sp, sp, #16
 496              		@ sp needed
 497 0048 80BD     		pop	{r7, pc}
 498              		.cfi_endproc
 499              	.LFE7:
 500              		.size	LCD_Char_WriteData, .-LCD_Char_WriteData
 501 004a C046     		.section	.text.LCD_Char_WriteControl,"ax",%progbits
 502              		.align	2
 503              		.global	LCD_Char_WriteControl
 504              		.code	16
 505              		.thumb_func
 506              		.type	LCD_Char_WriteControl, %function
 507              	LCD_Char_WriteControl:
 508              	.LFB8:
 298:Generated_Source\PSoC4/LCD_Char.c **** 
 299:Generated_Source\PSoC4/LCD_Char.c **** 
 300:Generated_Source\PSoC4/LCD_Char.c **** /*******************************************************************************
 301:Generated_Source\PSoC4/LCD_Char.c **** *  Function Name: LCD_Char_WriteControl
 302:Generated_Source\PSoC4/LCD_Char.c **** ********************************************************************************
 303:Generated_Source\PSoC4/LCD_Char.c **** *
 304:Generated_Source\PSoC4/LCD_Char.c **** * Summary:
 305:Generated_Source\PSoC4/LCD_Char.c **** *  Writes a command byte to the LCD module.
 306:Generated_Source\PSoC4/LCD_Char.c **** *
 307:Generated_Source\PSoC4/LCD_Char.c **** * Parameters:
 308:Generated_Source\PSoC4/LCD_Char.c **** *  cByte:  The byte to be written to theLCD module
 309:Generated_Source\PSoC4/LCD_Char.c **** * 
 310:Generated_Source\PSoC4/LCD_Char.c **** * Return:
 311:Generated_Source\PSoC4/LCD_Char.c **** *  None.
 312:Generated_Source\PSoC4/LCD_Char.c **** *
 313:Generated_Source\PSoC4/LCD_Char.c **** *******************************************************************************/
 314:Generated_Source\PSoC4/LCD_Char.c **** void LCD_Char_WriteControl(uint8 cByte) 
 315:Generated_Source\PSoC4/LCD_Char.c **** {
 509              		.loc 1 315 0
 510              		.cfi_startproc
 511              		@ args = 0, pretend = 0, frame = 16
 512              		@ frame_needed = 1, uses_anonymous_args = 0
 513 0000 80B5     		push	{r7, lr}
 514              		.cfi_def_cfa_offset 8
 515              		.cfi_offset 7, -8
 516              		.cfi_offset 14, -4
 517 0002 84B0     		sub	sp, sp, #16
 518              		.cfi_def_cfa_offset 24
 519 0004 00AF     		add	r7, sp, #0
 520              		.cfi_def_cfa_register 7
 521 0006 0200     		movs	r2, r0
 522 0008 FB1D     		adds	r3, r7, #7
 523 000a 1A70     		strb	r2, [r3]
 316:Generated_Source\PSoC4/LCD_Char.c ****     uint8 nibble;
 317:Generated_Source\PSoC4/LCD_Char.c **** 
 318:Generated_Source\PSoC4/LCD_Char.c ****     LCD_Char_IsReady();
 524              		.loc 1 318 0
 525 000c FFF7FEFF 		bl	LCD_Char_IsReady
 319:Generated_Source\PSoC4/LCD_Char.c **** 
 320:Generated_Source\PSoC4/LCD_Char.c ****     nibble = cByte >> LCD_Char_NIBBLE_SHIFT;
ARM GAS  C:\Users\quint\AppData\Local\Temp\ccOXFVSh.s 			page 16


 526              		.loc 1 320 0
 527 0010 0F23     		movs	r3, #15
 528 0012 FB18     		adds	r3, r7, r3
 529 0014 FA1D     		adds	r2, r7, #7
 530 0016 1278     		ldrb	r2, [r2]
 531 0018 1209     		lsrs	r2, r2, #4
 532 001a 1A70     		strb	r2, [r3]
 321:Generated_Source\PSoC4/LCD_Char.c ****     
 322:Generated_Source\PSoC4/LCD_Char.c ****     /* WrCntrlNib(High Nibble) */
 323:Generated_Source\PSoC4/LCD_Char.c ****     LCD_Char_WrCntrlNib(nibble);
 533              		.loc 1 323 0
 534 001c 0F23     		movs	r3, #15
 535 001e FB18     		adds	r3, r7, r3
 536 0020 1B78     		ldrb	r3, [r3]
 537 0022 1800     		movs	r0, r3
 538 0024 FFF7FEFF 		bl	LCD_Char_WrCntrlNib
 324:Generated_Source\PSoC4/LCD_Char.c ****     nibble = cByte & LCD_Char_NIBBLE_MASK;
 539              		.loc 1 324 0
 540 0028 0F23     		movs	r3, #15
 541 002a FB18     		adds	r3, r7, r3
 542 002c FA1D     		adds	r2, r7, #7
 543 002e 1278     		ldrb	r2, [r2]
 544 0030 0F21     		movs	r1, #15
 545 0032 0A40     		ands	r2, r1
 546 0034 1A70     		strb	r2, [r3]
 325:Generated_Source\PSoC4/LCD_Char.c **** 
 326:Generated_Source\PSoC4/LCD_Char.c ****     /* WrCntrlNib(Low Nibble) */
 327:Generated_Source\PSoC4/LCD_Char.c ****     LCD_Char_WrCntrlNib(nibble);
 547              		.loc 1 327 0
 548 0036 0F23     		movs	r3, #15
 549 0038 FB18     		adds	r3, r7, r3
 550 003a 1B78     		ldrb	r3, [r3]
 551 003c 1800     		movs	r0, r3
 552 003e FFF7FEFF 		bl	LCD_Char_WrCntrlNib
 328:Generated_Source\PSoC4/LCD_Char.c **** }
 553              		.loc 1 328 0
 554 0042 C046     		nop
 555 0044 BD46     		mov	sp, r7
 556 0046 04B0     		add	sp, sp, #16
 557              		@ sp needed
 558 0048 80BD     		pop	{r7, pc}
 559              		.cfi_endproc
 560              	.LFE8:
 561              		.size	LCD_Char_WriteControl, .-LCD_Char_WriteControl
 562 004a C046     		.section	.text.LCD_Char_IsReady,"ax",%progbits
 563              		.align	2
 564              		.global	LCD_Char_IsReady
 565              		.code	16
 566              		.thumb_func
 567              		.type	LCD_Char_IsReady, %function
 568              	LCD_Char_IsReady:
 569              	.LFB9:
 329:Generated_Source\PSoC4/LCD_Char.c **** 
 330:Generated_Source\PSoC4/LCD_Char.c **** 
 331:Generated_Source\PSoC4/LCD_Char.c **** /*******************************************************************************
 332:Generated_Source\PSoC4/LCD_Char.c **** * Function Name: LCD_Char_IsReady
 333:Generated_Source\PSoC4/LCD_Char.c **** ********************************************************************************
ARM GAS  C:\Users\quint\AppData\Local\Temp\ccOXFVSh.s 			page 17


 334:Generated_Source\PSoC4/LCD_Char.c **** *
 335:Generated_Source\PSoC4/LCD_Char.c **** * Summary:
 336:Generated_Source\PSoC4/LCD_Char.c **** *  Polls the LCD until the ready bit is set or a timeout occurs.
 337:Generated_Source\PSoC4/LCD_Char.c **** *
 338:Generated_Source\PSoC4/LCD_Char.c **** * Parameters:
 339:Generated_Source\PSoC4/LCD_Char.c **** *  None.
 340:Generated_Source\PSoC4/LCD_Char.c **** *
 341:Generated_Source\PSoC4/LCD_Char.c **** * Return:
 342:Generated_Source\PSoC4/LCD_Char.c **** *  None.
 343:Generated_Source\PSoC4/LCD_Char.c **** *
 344:Generated_Source\PSoC4/LCD_Char.c **** * Note:
 345:Generated_Source\PSoC4/LCD_Char.c **** *  Changes the pins to High-Z.
 346:Generated_Source\PSoC4/LCD_Char.c **** *
 347:Generated_Source\PSoC4/LCD_Char.c **** *******************************************************************************/
 348:Generated_Source\PSoC4/LCD_Char.c **** void LCD_Char_IsReady(void) 
 349:Generated_Source\PSoC4/LCD_Char.c **** {
 570              		.loc 1 349 0
 571              		.cfi_startproc
 572              		@ args = 0, pretend = 0, frame = 8
 573              		@ frame_needed = 1, uses_anonymous_args = 0
 574 0000 80B5     		push	{r7, lr}
 575              		.cfi_def_cfa_offset 8
 576              		.cfi_offset 7, -8
 577              		.cfi_offset 14, -4
 578 0002 82B0     		sub	sp, sp, #8
 579              		.cfi_def_cfa_offset 16
 580 0004 00AF     		add	r7, sp, #0
 581              		.cfi_def_cfa_register 7
 350:Generated_Source\PSoC4/LCD_Char.c ****     uint32 value;
 351:Generated_Source\PSoC4/LCD_Char.c ****     uint32 timeout;
 352:Generated_Source\PSoC4/LCD_Char.c ****     timeout = LCD_Char_READY_DELAY;
 582              		.loc 1 352 0
 583 0006 CA23     		movs	r3, #202
 584 0008 5B00     		lsls	r3, r3, #1
 585 000a 7B60     		str	r3, [r7, #4]
 353:Generated_Source\PSoC4/LCD_Char.c **** 
 354:Generated_Source\PSoC4/LCD_Char.c ****     /* Clear LCD port*/
 355:Generated_Source\PSoC4/LCD_Char.c ****     LCD_Char_PORT_DR_REG &= ((uint32)(~LCD_Char_PORT_MASK));
 586              		.loc 1 355 0
 587 000c 374B     		ldr	r3, .L32
 588 000e 374A     		ldr	r2, .L32
 589 0010 1268     		ldr	r2, [r2]
 590 0012 FE21     		movs	r1, #254
 591 0014 8A43     		bics	r2, r1
 592 0016 1A60     		str	r2, [r3]
 356:Generated_Source\PSoC4/LCD_Char.c **** 
 357:Generated_Source\PSoC4/LCD_Char.c ****     /* PSoC4 has a little different from PSoC3/5 port/pin organization for setting Drive Modes.
 358:Generated_Source\PSoC4/LCD_Char.c ****   
 359:Generated_Source\PSoC4/LCD_Char.c ****     */
 360:Generated_Source\PSoC4/LCD_Char.c ****     #if (CY_PSOC4)
 361:Generated_Source\PSoC4/LCD_Char.c ****         
 362:Generated_Source\PSoC4/LCD_Char.c ****         /* Mask off data pins to clear old values out */
 363:Generated_Source\PSoC4/LCD_Char.c ****         value = LCD_Char_PORT_PC_REG & ((uint32) (~ LCD_Char_DM_DATA_MASK));
 593              		.loc 1 363 0
 594 0018 354B     		ldr	r3, .L32+4
 595 001a 1B68     		ldr	r3, [r3]
 596 001c 354A     		ldr	r2, .L32+8
ARM GAS  C:\Users\quint\AppData\Local\Temp\ccOXFVSh.s 			page 18


 597 001e 1340     		ands	r3, r2
 598 0020 3B60     		str	r3, [r7]
 364:Generated_Source\PSoC4/LCD_Char.c ****         /* Load in high Z values for data pins, others unchanged */
 365:Generated_Source\PSoC4/LCD_Char.c ****         LCD_Char_PORT_PC_REG = value | LCD_Char_HIGH_Z_DATA_DM;
 599              		.loc 1 365 0
 600 0022 334B     		ldr	r3, .L32+4
 601 0024 3A68     		ldr	r2, [r7]
 602 0026 3449     		ldr	r1, .L32+12
 603 0028 0A43     		orrs	r2, r1
 604 002a 1A60     		str	r2, [r3]
 366:Generated_Source\PSoC4/LCD_Char.c **** 
 367:Generated_Source\PSoC4/LCD_Char.c ****     #else
 368:Generated_Source\PSoC4/LCD_Char.c ****     
 369:Generated_Source\PSoC4/LCD_Char.c ****         /* Change Port to High-Z Status on data pins */
 370:Generated_Source\PSoC4/LCD_Char.c **** 
 371:Generated_Source\PSoC4/LCD_Char.c ****         /* Mask off data pins to clear old values out */
 372:Generated_Source\PSoC4/LCD_Char.c ****         value = LCD_Char_PORT_DM0_REG & ((uint8)(~LCD_Char_DATA_MASK));
 373:Generated_Source\PSoC4/LCD_Char.c ****         /* Load in high Z values for data pins, others unchanged */
 374:Generated_Source\PSoC4/LCD_Char.c ****         LCD_Char_PORT_DM0_REG = value | (LCD_Char_HIGH_Z_DM0 & LCD_Char_DATA_MASK);
 375:Generated_Source\PSoC4/LCD_Char.c **** 
 376:Generated_Source\PSoC4/LCD_Char.c ****         /* Mask off data pins to clear old values out */
 377:Generated_Source\PSoC4/LCD_Char.c ****         value = LCD_Char_PORT_DM1_REG & ((uint8)(~LCD_Char_DATA_MASK));
 378:Generated_Source\PSoC4/LCD_Char.c ****         /* Load in high Z values for data pins, others unchanged */
 379:Generated_Source\PSoC4/LCD_Char.c ****         LCD_Char_PORT_DM1_REG = value;
 380:Generated_Source\PSoC4/LCD_Char.c **** 
 381:Generated_Source\PSoC4/LCD_Char.c ****         /* Mask off data pins to clear old values out */
 382:Generated_Source\PSoC4/LCD_Char.c ****         value = LCD_Char_PORT_DM2_REG & ((uint8)(~LCD_Char_DATA_MASK));
 383:Generated_Source\PSoC4/LCD_Char.c ****         /* Load in high Z values for data pins, others unchanged */
 384:Generated_Source\PSoC4/LCD_Char.c ****         LCD_Char_PORT_DM2_REG = value;
 385:Generated_Source\PSoC4/LCD_Char.c ****     
 386:Generated_Source\PSoC4/LCD_Char.c ****     #endif /* CY_PSOC4 */
 387:Generated_Source\PSoC4/LCD_Char.c ****     
 388:Generated_Source\PSoC4/LCD_Char.c ****     /* Make sure RS is low */
 389:Generated_Source\PSoC4/LCD_Char.c ****     LCD_Char_PORT_DR_REG &= ((uint32)(~LCD_Char_RS));
 605              		.loc 1 389 0
 606 002c 2F4B     		ldr	r3, .L32
 607 002e 2F4A     		ldr	r2, .L32
 608 0030 1268     		ldr	r2, [r2]
 609 0032 4021     		movs	r1, #64
 610 0034 8A43     		bics	r2, r1
 611 0036 1A60     		str	r2, [r3]
 390:Generated_Source\PSoC4/LCD_Char.c **** 
 391:Generated_Source\PSoC4/LCD_Char.c ****     /* Set R/W high to read */
 392:Generated_Source\PSoC4/LCD_Char.c ****     LCD_Char_PORT_DR_REG |= LCD_Char_RW;
 612              		.loc 1 392 0
 613 0038 2C4B     		ldr	r3, .L32
 614 003a 2C4A     		ldr	r2, .L32
 615 003c 1268     		ldr	r2, [r2]
 616 003e 8021     		movs	r1, #128
 617 0040 0A43     		orrs	r2, r1
 618 0042 1A60     		str	r2, [r3]
 619              	.L31:
 393:Generated_Source\PSoC4/LCD_Char.c **** 
 394:Generated_Source\PSoC4/LCD_Char.c ****     do
 395:Generated_Source\PSoC4/LCD_Char.c ****     {
 396:Generated_Source\PSoC4/LCD_Char.c ****         /* 40 ns delay required before rising Enable and 500ns between neighbour Enables */
 397:Generated_Source\PSoC4/LCD_Char.c ****         CyDelayUs(0u);
ARM GAS  C:\Users\quint\AppData\Local\Temp\ccOXFVSh.s 			page 19


 620              		.loc 1 397 0
 621 0044 0020     		movs	r0, #0
 622 0046 FFF7FEFF 		bl	CyDelayUs
 398:Generated_Source\PSoC4/LCD_Char.c **** 
 399:Generated_Source\PSoC4/LCD_Char.c ****         /* Set E high */
 400:Generated_Source\PSoC4/LCD_Char.c ****         LCD_Char_PORT_DR_REG |= LCD_Char_E;
 623              		.loc 1 400 0
 624 004a 284B     		ldr	r3, .L32
 625 004c 274A     		ldr	r2, .L32
 626 004e 1268     		ldr	r2, [r2]
 627 0050 2021     		movs	r1, #32
 628 0052 0A43     		orrs	r2, r1
 629 0054 1A60     		str	r2, [r3]
 401:Generated_Source\PSoC4/LCD_Char.c **** 
 402:Generated_Source\PSoC4/LCD_Char.c ****         /* 360 ns delay setup time for data pins */
 403:Generated_Source\PSoC4/LCD_Char.c ****         CyDelayUs(1u);
 630              		.loc 1 403 0
 631 0056 0120     		movs	r0, #1
 632 0058 FFF7FEFF 		bl	CyDelayUs
 404:Generated_Source\PSoC4/LCD_Char.c **** 
 405:Generated_Source\PSoC4/LCD_Char.c ****         /* Get port state */
 406:Generated_Source\PSoC4/LCD_Char.c ****         value = LCD_Char_PORT_PS_REG;
 633              		.loc 1 406 0
 634 005c 274B     		ldr	r3, .L32+16
 635 005e 1B68     		ldr	r3, [r3]
 636 0060 3B60     		str	r3, [r7]
 407:Generated_Source\PSoC4/LCD_Char.c **** 
 408:Generated_Source\PSoC4/LCD_Char.c ****         /* Set enable low */
 409:Generated_Source\PSoC4/LCD_Char.c ****         LCD_Char_PORT_DR_REG &= ((uint32)(~LCD_Char_E));
 637              		.loc 1 409 0
 638 0062 224B     		ldr	r3, .L32
 639 0064 214A     		ldr	r2, .L32
 640 0066 1268     		ldr	r2, [r2]
 641 0068 2021     		movs	r1, #32
 642 006a 8A43     		bics	r2, r1
 643 006c 1A60     		str	r2, [r3]
 410:Generated_Source\PSoC4/LCD_Char.c **** 
 411:Generated_Source\PSoC4/LCD_Char.c ****         /* This gives true delay between disabling Enable bit and polling Ready bit */
 412:Generated_Source\PSoC4/LCD_Char.c ****         CyDelayUs(0u);
 644              		.loc 1 412 0
 645 006e 0020     		movs	r0, #0
 646 0070 FFF7FEFF 		bl	CyDelayUs
 413:Generated_Source\PSoC4/LCD_Char.c **** 
 414:Generated_Source\PSoC4/LCD_Char.c ****         /* Extract ready bit */
 415:Generated_Source\PSoC4/LCD_Char.c ****         value &= LCD_Char_READY_BIT;
 647              		.loc 1 415 0
 648 0074 3B68     		ldr	r3, [r7]
 649 0076 1022     		movs	r2, #16
 650 0078 1340     		ands	r3, r2
 651 007a 3B60     		str	r3, [r7]
 416:Generated_Source\PSoC4/LCD_Char.c **** 
 417:Generated_Source\PSoC4/LCD_Char.c ****         /* Set E high as we in 4-bit interface we need extra operation */
 418:Generated_Source\PSoC4/LCD_Char.c ****         LCD_Char_PORT_DR_REG |= LCD_Char_E;
 652              		.loc 1 418 0
 653 007c 1B4B     		ldr	r3, .L32
 654 007e 1B4A     		ldr	r2, .L32
 655 0080 1268     		ldr	r2, [r2]
ARM GAS  C:\Users\quint\AppData\Local\Temp\ccOXFVSh.s 			page 20


 656 0082 2021     		movs	r1, #32
 657 0084 0A43     		orrs	r2, r1
 658 0086 1A60     		str	r2, [r3]
 419:Generated_Source\PSoC4/LCD_Char.c **** 
 420:Generated_Source\PSoC4/LCD_Char.c ****         /* 360 ns delay setup time for data pins */
 421:Generated_Source\PSoC4/LCD_Char.c ****         CyDelayUs(1u);
 659              		.loc 1 421 0
 660 0088 0120     		movs	r0, #1
 661 008a FFF7FEFF 		bl	CyDelayUs
 422:Generated_Source\PSoC4/LCD_Char.c **** 
 423:Generated_Source\PSoC4/LCD_Char.c ****         /* Set enable low */
 424:Generated_Source\PSoC4/LCD_Char.c ****         LCD_Char_PORT_DR_REG &= ((uint32)(~LCD_Char_E));
 662              		.loc 1 424 0
 663 008e 174B     		ldr	r3, .L32
 664 0090 164A     		ldr	r2, .L32
 665 0092 1268     		ldr	r2, [r2]
 666 0094 2021     		movs	r1, #32
 667 0096 8A43     		bics	r2, r1
 668 0098 1A60     		str	r2, [r3]
 425:Generated_Source\PSoC4/LCD_Char.c **** 
 426:Generated_Source\PSoC4/LCD_Char.c ****         /* If LCD is not ready make a delay */
 427:Generated_Source\PSoC4/LCD_Char.c ****         if (value == 0u)
 669              		.loc 1 427 0
 670 009a 3B68     		ldr	r3, [r7]
 671 009c 002B     		cmp	r3, #0
 672 009e 02D1     		bne	.L29
 428:Generated_Source\PSoC4/LCD_Char.c ****         {
 429:Generated_Source\PSoC4/LCD_Char.c ****             CyDelayUs(10u);
 673              		.loc 1 429 0
 674 00a0 0A20     		movs	r0, #10
 675 00a2 FFF7FEFF 		bl	CyDelayUs
 676              	.L29:
 430:Generated_Source\PSoC4/LCD_Char.c ****         }
 431:Generated_Source\PSoC4/LCD_Char.c **** 
 432:Generated_Source\PSoC4/LCD_Char.c ****         /* Repeat until bit 4 is not zero or until timeout. */
 433:Generated_Source\PSoC4/LCD_Char.c ****         timeout--;
 677              		.loc 1 433 0
 678 00a6 7B68     		ldr	r3, [r7, #4]
 679 00a8 013B     		subs	r3, r3, #1
 680 00aa 7B60     		str	r3, [r7, #4]
 434:Generated_Source\PSoC4/LCD_Char.c **** 
 435:Generated_Source\PSoC4/LCD_Char.c ****     } while ((value != 0u) && (timeout > 0u));
 681              		.loc 1 435 0
 682 00ac 3B68     		ldr	r3, [r7]
 683 00ae 002B     		cmp	r3, #0
 684 00b0 02D0     		beq	.L30
 685              		.loc 1 435 0 is_stmt 0 discriminator 1
 686 00b2 7B68     		ldr	r3, [r7, #4]
 687 00b4 002B     		cmp	r3, #0
 688 00b6 C5D1     		bne	.L31
 689              	.L30:
 436:Generated_Source\PSoC4/LCD_Char.c **** 
 437:Generated_Source\PSoC4/LCD_Char.c ****     /* Set R/W low to write */
 438:Generated_Source\PSoC4/LCD_Char.c ****     LCD_Char_PORT_DR_REG &= ((uint32)(~LCD_Char_RW));
 690              		.loc 1 438 0 is_stmt 1
 691 00b8 0C4B     		ldr	r3, .L32
 692 00ba 0C4A     		ldr	r2, .L32
ARM GAS  C:\Users\quint\AppData\Local\Temp\ccOXFVSh.s 			page 21


 693 00bc 1268     		ldr	r2, [r2]
 694 00be 8021     		movs	r1, #128
 695 00c0 8A43     		bics	r2, r1
 696 00c2 1A60     		str	r2, [r3]
 439:Generated_Source\PSoC4/LCD_Char.c **** 
 440:Generated_Source\PSoC4/LCD_Char.c ****     /* Clear LCD port*/
 441:Generated_Source\PSoC4/LCD_Char.c ****     LCD_Char_PORT_DR_REG &= ((uint32)(~LCD_Char_PORT_MASK));
 697              		.loc 1 441 0
 698 00c4 094B     		ldr	r3, .L32
 699 00c6 094A     		ldr	r2, .L32
 700 00c8 1268     		ldr	r2, [r2]
 701 00ca FE21     		movs	r1, #254
 702 00cc 8A43     		bics	r2, r1
 703 00ce 1A60     		str	r2, [r3]
 442:Generated_Source\PSoC4/LCD_Char.c **** 
 443:Generated_Source\PSoC4/LCD_Char.c ****     #if (CY_PSOC4)
 444:Generated_Source\PSoC4/LCD_Char.c ****         
 445:Generated_Source\PSoC4/LCD_Char.c ****         /* Mask off data pins to clear old values out */
 446:Generated_Source\PSoC4/LCD_Char.c ****         value = LCD_Char_PORT_PC_REG & ((uint32)(~ LCD_Char_DM_DATA_MASK));
 704              		.loc 1 446 0
 705 00d0 074B     		ldr	r3, .L32+4
 706 00d2 1B68     		ldr	r3, [r3]
 707 00d4 074A     		ldr	r2, .L32+8
 708 00d6 1340     		ands	r3, r2
 709 00d8 3B60     		str	r3, [r7]
 447:Generated_Source\PSoC4/LCD_Char.c ****         /* Load in high Z values for data pins, others unchanged */
 448:Generated_Source\PSoC4/LCD_Char.c ****         LCD_Char_PORT_PC_REG = value | LCD_Char_STRONG_DATA_DM;
 710              		.loc 1 448 0
 711 00da 054B     		ldr	r3, .L32+4
 712 00dc 3A68     		ldr	r2, [r7]
 713 00de 0849     		ldr	r1, .L32+20
 714 00e0 0A43     		orrs	r2, r1
 715 00e2 1A60     		str	r2, [r3]
 449:Generated_Source\PSoC4/LCD_Char.c **** 
 450:Generated_Source\PSoC4/LCD_Char.c ****     #else
 451:Generated_Source\PSoC4/LCD_Char.c **** 
 452:Generated_Source\PSoC4/LCD_Char.c ****         /* Change Port to Output (Strong) on data pins */
 453:Generated_Source\PSoC4/LCD_Char.c ****         /* Mask off data pins to clear high z values out. Configure data pins 
 454:Generated_Source\PSoC4/LCD_Char.c ****         * to Strong Drive, others unchanged.
 455:Generated_Source\PSoC4/LCD_Char.c ****         */
 456:Generated_Source\PSoC4/LCD_Char.c ****         LCD_Char_PORT_DM0_REG &= ((uint8)(~LCD_Char_DATA_MASK));
 457:Generated_Source\PSoC4/LCD_Char.c ****         /* Mask off data pins to clear high z values out */
 458:Generated_Source\PSoC4/LCD_Char.c ****         value = LCD_Char_PORT_DM1_REG & ((uint8)(~LCD_Char_DATA_MASK));
 459:Generated_Source\PSoC4/LCD_Char.c ****         /* Configure data pins to Strong Drive, others unchanged */
 460:Generated_Source\PSoC4/LCD_Char.c ****         LCD_Char_PORT_DM1_REG = value | (LCD_Char_STRONG_DM1 & LCD_Char_DATA_MASK);
 461:Generated_Source\PSoC4/LCD_Char.c **** 
 462:Generated_Source\PSoC4/LCD_Char.c ****         /* Mask off data pins to clear high z values out */
 463:Generated_Source\PSoC4/LCD_Char.c ****         value = LCD_Char_PORT_DM2_REG & ((uint8)(~LCD_Char_DATA_MASK));
 464:Generated_Source\PSoC4/LCD_Char.c ****         /* Configure data pins to Strong Drive, others unchanged */
 465:Generated_Source\PSoC4/LCD_Char.c ****         LCD_Char_PORT_DM2_REG = value | (LCD_Char_STRONG_DM2 & LCD_Char_DATA_MASK);
 466:Generated_Source\PSoC4/LCD_Char.c ****     
 467:Generated_Source\PSoC4/LCD_Char.c ****     #endif /* CY_PSOC4 */
 468:Generated_Source\PSoC4/LCD_Char.c **** }
 716              		.loc 1 468 0
 717 00e4 C046     		nop
 718 00e6 BD46     		mov	sp, r7
 719 00e8 02B0     		add	sp, sp, #8
ARM GAS  C:\Users\quint\AppData\Local\Temp\ccOXFVSh.s 			page 22


 720              		@ sp needed
 721 00ea 80BD     		pop	{r7, pc}
 722              	.L33:
 723              		.align	2
 724              	.L32:
 725 00ec 00020440 		.word	1074004480
 726 00f0 08020440 		.word	1074004488
 727 00f4 0780FFFF 		.word	-32761
 728 00f8 48120000 		.word	4680
 729 00fc 04020440 		.word	1074004484
 730 0100 B06D0000 		.word	28080
 731              		.cfi_endproc
 732              	.LFE9:
 733              		.size	LCD_Char_IsReady, .-LCD_Char_IsReady
 734              		.section	.text.LCD_Char_WrDatNib,"ax",%progbits
 735              		.align	2
 736              		.code	16
 737              		.thumb_func
 738              		.type	LCD_Char_WrDatNib, %function
 739              	LCD_Char_WrDatNib:
 740              	.LFB10:
 469:Generated_Source\PSoC4/LCD_Char.c **** 
 470:Generated_Source\PSoC4/LCD_Char.c **** 
 471:Generated_Source\PSoC4/LCD_Char.c **** /*******************************************************************************
 472:Generated_Source\PSoC4/LCD_Char.c **** *  Function Name: LCD_Char_WrDatNib
 473:Generated_Source\PSoC4/LCD_Char.c **** ********************************************************************************
 474:Generated_Source\PSoC4/LCD_Char.c **** *
 475:Generated_Source\PSoC4/LCD_Char.c **** * Summary:
 476:Generated_Source\PSoC4/LCD_Char.c **** *  Writes a data nibble to the LCD module.
 477:Generated_Source\PSoC4/LCD_Char.c **** *
 478:Generated_Source\PSoC4/LCD_Char.c **** * Parameters:
 479:Generated_Source\PSoC4/LCD_Char.c **** *  nibble:  Byte containing nibble in the least significant nibble to be
 480:Generated_Source\PSoC4/LCD_Char.c **** *           written to the LCD module.
 481:Generated_Source\PSoC4/LCD_Char.c **** *
 482:Generated_Source\PSoC4/LCD_Char.c **** * Return:
 483:Generated_Source\PSoC4/LCD_Char.c **** *  None.
 484:Generated_Source\PSoC4/LCD_Char.c **** *
 485:Generated_Source\PSoC4/LCD_Char.c **** *******************************************************************************/
 486:Generated_Source\PSoC4/LCD_Char.c **** static void LCD_Char_WrDatNib(uint8 nibble) 
 487:Generated_Source\PSoC4/LCD_Char.c **** {
 741              		.loc 1 487 0
 742              		.cfi_startproc
 743              		@ args = 0, pretend = 0, frame = 8
 744              		@ frame_needed = 1, uses_anonymous_args = 0
 745 0000 80B5     		push	{r7, lr}
 746              		.cfi_def_cfa_offset 8
 747              		.cfi_offset 7, -8
 748              		.cfi_offset 14, -4
 749 0002 82B0     		sub	sp, sp, #8
 750              		.cfi_def_cfa_offset 16
 751 0004 00AF     		add	r7, sp, #0
 752              		.cfi_def_cfa_register 7
 753 0006 0200     		movs	r2, r0
 754 0008 FB1D     		adds	r3, r7, #7
 755 000a 1A70     		strb	r2, [r3]
 488:Generated_Source\PSoC4/LCD_Char.c ****     /* RS should be low to select data register */
 489:Generated_Source\PSoC4/LCD_Char.c ****     LCD_Char_PORT_DR_REG |= LCD_Char_RS;
ARM GAS  C:\Users\quint\AppData\Local\Temp\ccOXFVSh.s 			page 23


 756              		.loc 1 489 0
 757 000c 164B     		ldr	r3, .L35
 758 000e 164A     		ldr	r2, .L35
 759 0010 1268     		ldr	r2, [r2]
 760 0012 4021     		movs	r1, #64
 761 0014 0A43     		orrs	r2, r1
 762 0016 1A60     		str	r2, [r3]
 490:Generated_Source\PSoC4/LCD_Char.c ****     /* Reset RW for write operation */
 491:Generated_Source\PSoC4/LCD_Char.c ****     LCD_Char_PORT_DR_REG &= ((uint32)(~LCD_Char_RW));
 763              		.loc 1 491 0
 764 0018 134B     		ldr	r3, .L35
 765 001a 134A     		ldr	r2, .L35
 766 001c 1268     		ldr	r2, [r2]
 767 001e 8021     		movs	r1, #128
 768 0020 8A43     		bics	r2, r1
 769 0022 1A60     		str	r2, [r3]
 492:Generated_Source\PSoC4/LCD_Char.c **** 
 493:Generated_Source\PSoC4/LCD_Char.c ****     /* Guaranteed delay between Setting RS and RW and setting E bits */
 494:Generated_Source\PSoC4/LCD_Char.c ****     CyDelayUs(0u);
 770              		.loc 1 494 0
 771 0024 0020     		movs	r0, #0
 772 0026 FFF7FEFF 		bl	CyDelayUs
 495:Generated_Source\PSoC4/LCD_Char.c ****     
 496:Generated_Source\PSoC4/LCD_Char.c ****     /* Clear data pins */
 497:Generated_Source\PSoC4/LCD_Char.c ****     LCD_Char_PORT_DR_REG &= ((uint32)(~LCD_Char_DATA_MASK));
 773              		.loc 1 497 0
 774 002a 0F4B     		ldr	r3, .L35
 775 002c 0E4A     		ldr	r2, .L35
 776 002e 1268     		ldr	r2, [r2]
 777 0030 1E21     		movs	r1, #30
 778 0032 8A43     		bics	r2, r1
 779 0034 1A60     		str	r2, [r3]
 498:Generated_Source\PSoC4/LCD_Char.c **** 
 499:Generated_Source\PSoC4/LCD_Char.c ****     /* Write data, bring E high */
 500:Generated_Source\PSoC4/LCD_Char.c ****     #if(0u != LCD_Char_PORT_SHIFT) /* MISRA forbids shift by 0 so need to handle that */
 501:Generated_Source\PSoC4/LCD_Char.c ****         LCD_Char_PORT_DR_REG |= 
 780              		.loc 1 501 0
 781 0036 0C4A     		ldr	r2, .L35
 782 0038 0B4B     		ldr	r3, .L35
 783 003a 1968     		ldr	r1, [r3]
 502:Generated_Source\PSoC4/LCD_Char.c ****             (LCD_Char_E | ((uint8)(((uint8) nibble) << LCD_Char_PORT_SHIFT)));
 784              		.loc 1 502 0
 785 003c FB1D     		adds	r3, r7, #7
 786 003e 1B78     		ldrb	r3, [r3]
 787 0040 DB18     		adds	r3, r3, r3
 788 0042 DBB2     		uxtb	r3, r3
 789 0044 2020     		movs	r0, #32
 790 0046 0343     		orrs	r3, r0
 791 0048 DBB2     		uxtb	r3, r3
 501:Generated_Source\PSoC4/LCD_Char.c ****             (LCD_Char_E | ((uint8)(((uint8) nibble) << LCD_Char_PORT_SHIFT)));
 792              		.loc 1 501 0
 793 004a 0B43     		orrs	r3, r1
 794 004c 1360     		str	r3, [r2]
 503:Generated_Source\PSoC4/LCD_Char.c ****     #else
 504:Generated_Source\PSoC4/LCD_Char.c ****         LCD_Char_PORT_DR_REG |= (LCD_Char_E | nibble);
 505:Generated_Source\PSoC4/LCD_Char.c ****     #endif /* (0u != LCD_Char_PORT_SHIFT) */
 506:Generated_Source\PSoC4/LCD_Char.c **** 
ARM GAS  C:\Users\quint\AppData\Local\Temp\ccOXFVSh.s 			page 24


 507:Generated_Source\PSoC4/LCD_Char.c ****     /* Minimum of 230 ns delay */
 508:Generated_Source\PSoC4/LCD_Char.c ****     CyDelayUs(1u);
 795              		.loc 1 508 0
 796 004e 0120     		movs	r0, #1
 797 0050 FFF7FEFF 		bl	CyDelayUs
 509:Generated_Source\PSoC4/LCD_Char.c **** 
 510:Generated_Source\PSoC4/LCD_Char.c ****     LCD_Char_PORT_DR_REG &= ((uint32)(~LCD_Char_E));
 798              		.loc 1 510 0
 799 0054 044B     		ldr	r3, .L35
 800 0056 044A     		ldr	r2, .L35
 801 0058 1268     		ldr	r2, [r2]
 802 005a 2021     		movs	r1, #32
 803 005c 8A43     		bics	r2, r1
 804 005e 1A60     		str	r2, [r3]
 511:Generated_Source\PSoC4/LCD_Char.c **** }
 805              		.loc 1 511 0
 806 0060 C046     		nop
 807 0062 BD46     		mov	sp, r7
 808 0064 02B0     		add	sp, sp, #8
 809              		@ sp needed
 810 0066 80BD     		pop	{r7, pc}
 811              	.L36:
 812              		.align	2
 813              	.L35:
 814 0068 00020440 		.word	1074004480
 815              		.cfi_endproc
 816              	.LFE10:
 817              		.size	LCD_Char_WrDatNib, .-LCD_Char_WrDatNib
 818              		.section	.text.LCD_Char_WrCntrlNib,"ax",%progbits
 819              		.align	2
 820              		.code	16
 821              		.thumb_func
 822              		.type	LCD_Char_WrCntrlNib, %function
 823              	LCD_Char_WrCntrlNib:
 824              	.LFB11:
 512:Generated_Source\PSoC4/LCD_Char.c **** 
 513:Generated_Source\PSoC4/LCD_Char.c **** 
 514:Generated_Source\PSoC4/LCD_Char.c **** /*******************************************************************************
 515:Generated_Source\PSoC4/LCD_Char.c **** *  Function Name: LCD_Char_WrCntrlNib
 516:Generated_Source\PSoC4/LCD_Char.c **** ********************************************************************************
 517:Generated_Source\PSoC4/LCD_Char.c **** *
 518:Generated_Source\PSoC4/LCD_Char.c **** * Summary:
 519:Generated_Source\PSoC4/LCD_Char.c **** *  Writes a control nibble to the LCD module.
 520:Generated_Source\PSoC4/LCD_Char.c **** *
 521:Generated_Source\PSoC4/LCD_Char.c **** * Parameters:
 522:Generated_Source\PSoC4/LCD_Char.c **** *  nibble: The byte containing a nibble in the four least significant bits.????
 523:Generated_Source\PSoC4/LCD_Char.c **** *
 524:Generated_Source\PSoC4/LCD_Char.c **** * Return:
 525:Generated_Source\PSoC4/LCD_Char.c **** *  None.
 526:Generated_Source\PSoC4/LCD_Char.c **** *
 527:Generated_Source\PSoC4/LCD_Char.c **** *******************************************************************************/
 528:Generated_Source\PSoC4/LCD_Char.c **** static void LCD_Char_WrCntrlNib(uint8 nibble) 
 529:Generated_Source\PSoC4/LCD_Char.c **** {
 825              		.loc 1 529 0
 826              		.cfi_startproc
 827              		@ args = 0, pretend = 0, frame = 8
 828              		@ frame_needed = 1, uses_anonymous_args = 0
ARM GAS  C:\Users\quint\AppData\Local\Temp\ccOXFVSh.s 			page 25


 829 0000 80B5     		push	{r7, lr}
 830              		.cfi_def_cfa_offset 8
 831              		.cfi_offset 7, -8
 832              		.cfi_offset 14, -4
 833 0002 82B0     		sub	sp, sp, #8
 834              		.cfi_def_cfa_offset 16
 835 0004 00AF     		add	r7, sp, #0
 836              		.cfi_def_cfa_register 7
 837 0006 0200     		movs	r2, r0
 838 0008 FB1D     		adds	r3, r7, #7
 839 000a 1A70     		strb	r2, [r3]
 530:Generated_Source\PSoC4/LCD_Char.c ****     /* RS and RW should be low to select instruction register and  write operation respectively */
 531:Generated_Source\PSoC4/LCD_Char.c ****     LCD_Char_PORT_DR_REG &= ((uint32)(~(LCD_Char_RS | LCD_Char_RW)));
 840              		.loc 1 531 0
 841 000c 124B     		ldr	r3, .L38
 842 000e 124A     		ldr	r2, .L38
 843 0010 1268     		ldr	r2, [r2]
 844 0012 C021     		movs	r1, #192
 845 0014 8A43     		bics	r2, r1
 846 0016 1A60     		str	r2, [r3]
 532:Generated_Source\PSoC4/LCD_Char.c **** 
 533:Generated_Source\PSoC4/LCD_Char.c ****     /* Two following lines of code will give 40ns delay */
 534:Generated_Source\PSoC4/LCD_Char.c ****     /* Clear data pins */
 535:Generated_Source\PSoC4/LCD_Char.c ****     LCD_Char_PORT_DR_REG &= ((uint32)(~LCD_Char_DATA_MASK));
 847              		.loc 1 535 0
 848 0018 0F4B     		ldr	r3, .L38
 849 001a 0F4A     		ldr	r2, .L38
 850 001c 1268     		ldr	r2, [r2]
 851 001e 1E21     		movs	r1, #30
 852 0020 8A43     		bics	r2, r1
 853 0022 1A60     		str	r2, [r3]
 536:Generated_Source\PSoC4/LCD_Char.c **** 
 537:Generated_Source\PSoC4/LCD_Char.c ****     /* Write control data and set enable signal */
 538:Generated_Source\PSoC4/LCD_Char.c ****     #if(0u != LCD_Char_PORT_SHIFT) /* MISRA forbids shift by 0 so need to handle that */
 539:Generated_Source\PSoC4/LCD_Char.c ****         LCD_Char_PORT_DR_REG |= 
 854              		.loc 1 539 0
 855 0024 0C4A     		ldr	r2, .L38
 856 0026 0C4B     		ldr	r3, .L38
 857 0028 1968     		ldr	r1, [r3]
 540:Generated_Source\PSoC4/LCD_Char.c ****             (LCD_Char_E | ((uint8)(((uint8) nibble) << LCD_Char_PORT_SHIFT)));
 858              		.loc 1 540 0
 859 002a FB1D     		adds	r3, r7, #7
 860 002c 1B78     		ldrb	r3, [r3]
 861 002e DB18     		adds	r3, r3, r3
 862 0030 DBB2     		uxtb	r3, r3
 863 0032 2020     		movs	r0, #32
 864 0034 0343     		orrs	r3, r0
 865 0036 DBB2     		uxtb	r3, r3
 539:Generated_Source\PSoC4/LCD_Char.c ****             (LCD_Char_E | ((uint8)(((uint8) nibble) << LCD_Char_PORT_SHIFT)));
 866              		.loc 1 539 0
 867 0038 0B43     		orrs	r3, r1
 868 003a 1360     		str	r3, [r2]
 541:Generated_Source\PSoC4/LCD_Char.c ****     #else
 542:Generated_Source\PSoC4/LCD_Char.c ****         LCD_Char_PORT_DR_REG |= (LCD_Char_E | nibble);
 543:Generated_Source\PSoC4/LCD_Char.c ****     #endif /* (0u != LCD_Char_PORT_SHIFT) */
 544:Generated_Source\PSoC4/LCD_Char.c **** 
 545:Generated_Source\PSoC4/LCD_Char.c ****     /* Minimum of 230 ns delay */
ARM GAS  C:\Users\quint\AppData\Local\Temp\ccOXFVSh.s 			page 26


 546:Generated_Source\PSoC4/LCD_Char.c ****     CyDelayUs(1u);
 869              		.loc 1 546 0
 870 003c 0120     		movs	r0, #1
 871 003e FFF7FEFF 		bl	CyDelayUs
 547:Generated_Source\PSoC4/LCD_Char.c **** 
 548:Generated_Source\PSoC4/LCD_Char.c ****     LCD_Char_PORT_DR_REG &= ((uint32)(~LCD_Char_E));
 872              		.loc 1 548 0
 873 0042 054B     		ldr	r3, .L38
 874 0044 044A     		ldr	r2, .L38
 875 0046 1268     		ldr	r2, [r2]
 876 0048 2021     		movs	r1, #32
 877 004a 8A43     		bics	r2, r1
 878 004c 1A60     		str	r2, [r3]
 549:Generated_Source\PSoC4/LCD_Char.c **** }
 879              		.loc 1 549 0
 880 004e C046     		nop
 881 0050 BD46     		mov	sp, r7
 882 0052 02B0     		add	sp, sp, #8
 883              		@ sp needed
 884 0054 80BD     		pop	{r7, pc}
 885              	.L39:
 886 0056 C046     		.align	2
 887              	.L38:
 888 0058 00020440 		.word	1074004480
 889              		.cfi_endproc
 890              	.LFE11:
 891              		.size	LCD_Char_WrCntrlNib, .-LCD_Char_WrCntrlNib
 892              		.section	.text.LCD_Char_PrintInt8,"ax",%progbits
 893              		.align	2
 894              		.global	LCD_Char_PrintInt8
 895              		.code	16
 896              		.thumb_func
 897              		.type	LCD_Char_PrintInt8, %function
 898              	LCD_Char_PrintInt8:
 899              	.LFB12:
 550:Generated_Source\PSoC4/LCD_Char.c **** 
 551:Generated_Source\PSoC4/LCD_Char.c **** 
 552:Generated_Source\PSoC4/LCD_Char.c **** #if(LCD_Char_CONVERSION_ROUTINES == 1u)
 553:Generated_Source\PSoC4/LCD_Char.c **** 
 554:Generated_Source\PSoC4/LCD_Char.c ****     /*******************************************************************************
 555:Generated_Source\PSoC4/LCD_Char.c ****     *  Function Name: LCD_Char_PrintInt8
 556:Generated_Source\PSoC4/LCD_Char.c ****     ********************************************************************************
 557:Generated_Source\PSoC4/LCD_Char.c ****     *
 558:Generated_Source\PSoC4/LCD_Char.c ****     * Summary:
 559:Generated_Source\PSoC4/LCD_Char.c ****     *  Print a byte as two ASCII characters.
 560:Generated_Source\PSoC4/LCD_Char.c ****     *
 561:Generated_Source\PSoC4/LCD_Char.c ****     * Parameters:
 562:Generated_Source\PSoC4/LCD_Char.c ****     *  value: The byte to be printed out as ASCII characters.
 563:Generated_Source\PSoC4/LCD_Char.c ****     *
 564:Generated_Source\PSoC4/LCD_Char.c ****     * Return:
 565:Generated_Source\PSoC4/LCD_Char.c ****     *  None.
 566:Generated_Source\PSoC4/LCD_Char.c ****     *
 567:Generated_Source\PSoC4/LCD_Char.c ****     *******************************************************************************/
 568:Generated_Source\PSoC4/LCD_Char.c ****     void LCD_Char_PrintInt8(uint8 value) 
 569:Generated_Source\PSoC4/LCD_Char.c ****     {
 900              		.loc 1 569 0
 901              		.cfi_startproc
ARM GAS  C:\Users\quint\AppData\Local\Temp\ccOXFVSh.s 			page 27


 902              		@ args = 0, pretend = 0, frame = 8
 903              		@ frame_needed = 1, uses_anonymous_args = 0
 904 0000 80B5     		push	{r7, lr}
 905              		.cfi_def_cfa_offset 8
 906              		.cfi_offset 7, -8
 907              		.cfi_offset 14, -4
 908 0002 82B0     		sub	sp, sp, #8
 909              		.cfi_def_cfa_offset 16
 910 0004 00AF     		add	r7, sp, #0
 911              		.cfi_def_cfa_register 7
 912 0006 0200     		movs	r2, r0
 913 0008 FB1D     		adds	r3, r7, #7
 914 000a 1A70     		strb	r2, [r3]
 570:Generated_Source\PSoC4/LCD_Char.c ****         static char8 const CYCODE LCD_Char_hex[16u] = "0123456789ABCDEF";
 571:Generated_Source\PSoC4/LCD_Char.c ****         
 572:Generated_Source\PSoC4/LCD_Char.c ****         LCD_Char_PutChar((char8) LCD_Char_hex[value >> LCD_Char_BYTE_UPPER_NIBBLE_SHIFT]);
 915              		.loc 1 572 0
 916 000c FB1D     		adds	r3, r7, #7
 917 000e 1B78     		ldrb	r3, [r3]
 918 0010 1B09     		lsrs	r3, r3, #4
 919 0012 DBB2     		uxtb	r3, r3
 920 0014 1A00     		movs	r2, r3
 921 0016 094B     		ldr	r3, .L41
 922 0018 9B5C     		ldrb	r3, [r3, r2]
 923 001a 1800     		movs	r0, r3
 924 001c FFF7FEFF 		bl	LCD_Char_PutChar
 573:Generated_Source\PSoC4/LCD_Char.c ****         LCD_Char_PutChar((char8) LCD_Char_hex[value & LCD_Char_BYTE_LOWER_NIBBLE_MASK]);
 925              		.loc 1 573 0
 926 0020 FB1D     		adds	r3, r7, #7
 927 0022 1B78     		ldrb	r3, [r3]
 928 0024 0F22     		movs	r2, #15
 929 0026 1340     		ands	r3, r2
 930 0028 044A     		ldr	r2, .L41
 931 002a D35C     		ldrb	r3, [r2, r3]
 932 002c 1800     		movs	r0, r3
 933 002e FFF7FEFF 		bl	LCD_Char_PutChar
 574:Generated_Source\PSoC4/LCD_Char.c ****     }
 934              		.loc 1 574 0
 935 0032 C046     		nop
 936 0034 BD46     		mov	sp, r7
 937 0036 02B0     		add	sp, sp, #8
 938              		@ sp needed
 939 0038 80BD     		pop	{r7, pc}
 940              	.L42:
 941 003a C046     		.align	2
 942              	.L41:
 943 003c 00000000 		.word	LCD_Char_hex.4923
 944              		.cfi_endproc
 945              	.LFE12:
 946              		.size	LCD_Char_PrintInt8, .-LCD_Char_PrintInt8
 947              		.section	.text.LCD_Char_PrintInt16,"ax",%progbits
 948              		.align	2
 949              		.global	LCD_Char_PrintInt16
 950              		.code	16
 951              		.thumb_func
 952              		.type	LCD_Char_PrintInt16, %function
 953              	LCD_Char_PrintInt16:
ARM GAS  C:\Users\quint\AppData\Local\Temp\ccOXFVSh.s 			page 28


 954              	.LFB13:
 575:Generated_Source\PSoC4/LCD_Char.c **** 
 576:Generated_Source\PSoC4/LCD_Char.c **** 
 577:Generated_Source\PSoC4/LCD_Char.c ****     /*******************************************************************************
 578:Generated_Source\PSoC4/LCD_Char.c ****     *  Function Name: LCD_Char_PrintInt16
 579:Generated_Source\PSoC4/LCD_Char.c ****     ********************************************************************************
 580:Generated_Source\PSoC4/LCD_Char.c ****     *
 581:Generated_Source\PSoC4/LCD_Char.c ****     * Summary:
 582:Generated_Source\PSoC4/LCD_Char.c ****     *  Print a uint16 as four ASCII characters.
 583:Generated_Source\PSoC4/LCD_Char.c ****     *
 584:Generated_Source\PSoC4/LCD_Char.c ****     * Parameters:
 585:Generated_Source\PSoC4/LCD_Char.c ****     *  value: The uint16 to be printed out as ASCII characters.
 586:Generated_Source\PSoC4/LCD_Char.c ****     *
 587:Generated_Source\PSoC4/LCD_Char.c ****     * Return:
 588:Generated_Source\PSoC4/LCD_Char.c ****     *  None.
 589:Generated_Source\PSoC4/LCD_Char.c ****     *
 590:Generated_Source\PSoC4/LCD_Char.c ****     *******************************************************************************/
 591:Generated_Source\PSoC4/LCD_Char.c ****     void LCD_Char_PrintInt16(uint16 value) 
 592:Generated_Source\PSoC4/LCD_Char.c ****     {
 955              		.loc 1 592 0
 956              		.cfi_startproc
 957              		@ args = 0, pretend = 0, frame = 8
 958              		@ frame_needed = 1, uses_anonymous_args = 0
 959 0000 80B5     		push	{r7, lr}
 960              		.cfi_def_cfa_offset 8
 961              		.cfi_offset 7, -8
 962              		.cfi_offset 14, -4
 963 0002 82B0     		sub	sp, sp, #8
 964              		.cfi_def_cfa_offset 16
 965 0004 00AF     		add	r7, sp, #0
 966              		.cfi_def_cfa_register 7
 967 0006 0200     		movs	r2, r0
 968 0008 BB1D     		adds	r3, r7, #6
 969 000a 1A80     		strh	r2, [r3]
 593:Generated_Source\PSoC4/LCD_Char.c ****         LCD_Char_PrintInt8((uint8)(value >> LCD_Char_U16_UPPER_BYTE_SHIFT));
 970              		.loc 1 593 0
 971 000c BB1D     		adds	r3, r7, #6
 972 000e 1B88     		ldrh	r3, [r3]
 973 0010 1B0A     		lsrs	r3, r3, #8
 974 0012 9BB2     		uxth	r3, r3
 975 0014 DBB2     		uxtb	r3, r3
 976 0016 1800     		movs	r0, r3
 977 0018 FFF7FEFF 		bl	LCD_Char_PrintInt8
 594:Generated_Source\PSoC4/LCD_Char.c ****         LCD_Char_PrintInt8((uint8)(value & LCD_Char_U16_LOWER_BYTE_MASK));
 978              		.loc 1 594 0
 979 001c BB1D     		adds	r3, r7, #6
 980 001e 1B88     		ldrh	r3, [r3]
 981 0020 DBB2     		uxtb	r3, r3
 982 0022 1800     		movs	r0, r3
 983 0024 FFF7FEFF 		bl	LCD_Char_PrintInt8
 595:Generated_Source\PSoC4/LCD_Char.c ****     }
 984              		.loc 1 595 0
 985 0028 C046     		nop
 986 002a BD46     		mov	sp, r7
 987 002c 02B0     		add	sp, sp, #8
 988              		@ sp needed
 989 002e 80BD     		pop	{r7, pc}
ARM GAS  C:\Users\quint\AppData\Local\Temp\ccOXFVSh.s 			page 29


 990              		.cfi_endproc
 991              	.LFE13:
 992              		.size	LCD_Char_PrintInt16, .-LCD_Char_PrintInt16
 993              		.section	.text.LCD_Char_PrintInt32,"ax",%progbits
 994              		.align	2
 995              		.global	LCD_Char_PrintInt32
 996              		.code	16
 997              		.thumb_func
 998              		.type	LCD_Char_PrintInt32, %function
 999              	LCD_Char_PrintInt32:
 1000              	.LFB14:
 596:Generated_Source\PSoC4/LCD_Char.c **** 
 597:Generated_Source\PSoC4/LCD_Char.c ****     
 598:Generated_Source\PSoC4/LCD_Char.c ****     /*******************************************************************************
 599:Generated_Source\PSoC4/LCD_Char.c ****     *  Function Name: LCD_Char_PrintInt32
 600:Generated_Source\PSoC4/LCD_Char.c ****     ********************************************************************************
 601:Generated_Source\PSoC4/LCD_Char.c ****     *
 602:Generated_Source\PSoC4/LCD_Char.c ****     * Summary:
 603:Generated_Source\PSoC4/LCD_Char.c ****     *  Print a uint32 hexadecimal number as eight ASCII characters.
 604:Generated_Source\PSoC4/LCD_Char.c ****     *
 605:Generated_Source\PSoC4/LCD_Char.c ****     * Parameters:
 606:Generated_Source\PSoC4/LCD_Char.c ****     *  value: The uint32 to be printed out as ASCII characters.
 607:Generated_Source\PSoC4/LCD_Char.c ****     *
 608:Generated_Source\PSoC4/LCD_Char.c ****     * Return:
 609:Generated_Source\PSoC4/LCD_Char.c ****     *  None.
 610:Generated_Source\PSoC4/LCD_Char.c ****     *
 611:Generated_Source\PSoC4/LCD_Char.c ****     *******************************************************************************/
 612:Generated_Source\PSoC4/LCD_Char.c ****     void LCD_Char_PrintInt32(uint32 value) 
 613:Generated_Source\PSoC4/LCD_Char.c ****     {
 1001              		.loc 1 613 0
 1002              		.cfi_startproc
 1003              		@ args = 0, pretend = 0, frame = 16
 1004              		@ frame_needed = 1, uses_anonymous_args = 0
 1005 0000 80B5     		push	{r7, lr}
 1006              		.cfi_def_cfa_offset 8
 1007              		.cfi_offset 7, -8
 1008              		.cfi_offset 14, -4
 1009 0002 84B0     		sub	sp, sp, #16
 1010              		.cfi_def_cfa_offset 24
 1011 0004 00AF     		add	r7, sp, #0
 1012              		.cfi_def_cfa_register 7
 1013 0006 7860     		str	r0, [r7, #4]
 614:Generated_Source\PSoC4/LCD_Char.c ****         uint8 shift = LCD_Char_32_BIT_SHIFT;
 1014              		.loc 1 614 0
 1015 0008 0F23     		movs	r3, #15
 1016 000a FB18     		adds	r3, r7, r3
 1017 000c 2022     		movs	r2, #32
 1018 000e 1A70     		strb	r2, [r3]
 615:Generated_Source\PSoC4/LCD_Char.c ****         
 616:Generated_Source\PSoC4/LCD_Char.c ****         while (shift != 0u)
 1019              		.loc 1 616 0
 1020 0010 10E0     		b	.L45
 1021              	.L46:
 617:Generated_Source\PSoC4/LCD_Char.c ****         {
 618:Generated_Source\PSoC4/LCD_Char.c ****             /* "shift" var is to be subtracted by 8 prior shifting. This implements 
 619:Generated_Source\PSoC4/LCD_Char.c ****             * shifting by 24, 16, 8 and 0u. 
 620:Generated_Source\PSoC4/LCD_Char.c ****             */
ARM GAS  C:\Users\quint\AppData\Local\Temp\ccOXFVSh.s 			page 30


 621:Generated_Source\PSoC4/LCD_Char.c ****             shift -= LCD_Char_8_BIT_SHIFT;
 1022              		.loc 1 621 0
 1023 0012 0F23     		movs	r3, #15
 1024 0014 FB18     		adds	r3, r7, r3
 1025 0016 0F22     		movs	r2, #15
 1026 0018 BA18     		adds	r2, r7, r2
 1027 001a 1278     		ldrb	r2, [r2]
 1028 001c 083A     		subs	r2, r2, #8
 1029 001e 1A70     		strb	r2, [r3]
 622:Generated_Source\PSoC4/LCD_Char.c ****             
 623:Generated_Source\PSoC4/LCD_Char.c ****             /* Print 8 bits of uint32 hex number */
 624:Generated_Source\PSoC4/LCD_Char.c ****             LCD_Char_PrintInt8((uint8) ((uint32) (value >> shift)));
 1030              		.loc 1 624 0
 1031 0020 0F23     		movs	r3, #15
 1032 0022 FB18     		adds	r3, r7, r3
 1033 0024 1B78     		ldrb	r3, [r3]
 1034 0026 7A68     		ldr	r2, [r7, #4]
 1035 0028 DA40     		lsrs	r2, r2, r3
 1036 002a 1300     		movs	r3, r2
 1037 002c DBB2     		uxtb	r3, r3
 1038 002e 1800     		movs	r0, r3
 1039 0030 FFF7FEFF 		bl	LCD_Char_PrintInt8
 1040              	.L45:
 616:Generated_Source\PSoC4/LCD_Char.c ****         {
 1041              		.loc 1 616 0
 1042 0034 0F23     		movs	r3, #15
 1043 0036 FB18     		adds	r3, r7, r3
 1044 0038 1B78     		ldrb	r3, [r3]
 1045 003a 002B     		cmp	r3, #0
 1046 003c E9D1     		bne	.L46
 625:Generated_Source\PSoC4/LCD_Char.c ****         }
 626:Generated_Source\PSoC4/LCD_Char.c ****     }
 1047              		.loc 1 626 0
 1048 003e C046     		nop
 1049 0040 BD46     		mov	sp, r7
 1050 0042 04B0     		add	sp, sp, #16
 1051              		@ sp needed
 1052 0044 80BD     		pop	{r7, pc}
 1053              		.cfi_endproc
 1054              	.LFE14:
 1055              		.size	LCD_Char_PrintInt32, .-LCD_Char_PrintInt32
 1056              		.global	__aeabi_uidivmod
 1057              		.global	__aeabi_uidiv
 1058 0046 C046     		.section	.text.LCD_Char_PrintU32Number,"ax",%progbits
 1059              		.align	2
 1060              		.global	LCD_Char_PrintU32Number
 1061              		.code	16
 1062              		.thumb_func
 1063              		.type	LCD_Char_PrintU32Number, %function
 1064              	LCD_Char_PrintU32Number:
 1065              	.LFB15:
 627:Generated_Source\PSoC4/LCD_Char.c ****     
 628:Generated_Source\PSoC4/LCD_Char.c ****     
 629:Generated_Source\PSoC4/LCD_Char.c ****     /*******************************************************************************
 630:Generated_Source\PSoC4/LCD_Char.c ****     *  Function Name: LCD_Char_PrintNumber
 631:Generated_Source\PSoC4/LCD_Char.c ****     ********************************************************************************
 632:Generated_Source\PSoC4/LCD_Char.c ****     *
ARM GAS  C:\Users\quint\AppData\Local\Temp\ccOXFVSh.s 			page 31


 633:Generated_Source\PSoC4/LCD_Char.c ****     * Summary:
 634:Generated_Source\PSoC4/LCD_Char.c ****     *  Print an uint16 value as a left-justified decimal value.
 635:Generated_Source\PSoC4/LCD_Char.c ****     *
 636:Generated_Source\PSoC4/LCD_Char.c ****     * Parameters:
 637:Generated_Source\PSoC4/LCD_Char.c ****     *  value: A 16-bit value to be printed in ASCII characters as a decimal number
 638:Generated_Source\PSoC4/LCD_Char.c ****     *
 639:Generated_Source\PSoC4/LCD_Char.c ****     * Return:
 640:Generated_Source\PSoC4/LCD_Char.c ****     *  None.
 641:Generated_Source\PSoC4/LCD_Char.c ****     *
 642:Generated_Source\PSoC4/LCD_Char.c ****     * Note:
 643:Generated_Source\PSoC4/LCD_Char.c ****     *  This function is implemented as a macro.
 644:Generated_Source\PSoC4/LCD_Char.c ****     *
 645:Generated_Source\PSoC4/LCD_Char.c ****     *******************************************************************************/
 646:Generated_Source\PSoC4/LCD_Char.c **** 
 647:Generated_Source\PSoC4/LCD_Char.c ****     
 648:Generated_Source\PSoC4/LCD_Char.c ****     /*******************************************************************************
 649:Generated_Source\PSoC4/LCD_Char.c ****     *  Function Name: LCD_Char_PrintU32Number
 650:Generated_Source\PSoC4/LCD_Char.c ****     ********************************************************************************
 651:Generated_Source\PSoC4/LCD_Char.c ****     *
 652:Generated_Source\PSoC4/LCD_Char.c ****     * Summary:
 653:Generated_Source\PSoC4/LCD_Char.c ****     *  Print an uint32 value as a left-justified decimal value.
 654:Generated_Source\PSoC4/LCD_Char.c ****     *
 655:Generated_Source\PSoC4/LCD_Char.c ****     * Parameters:
 656:Generated_Source\PSoC4/LCD_Char.c ****     *  value: A 32-bit value to be printed in ASCII characters as a decimal number
 657:Generated_Source\PSoC4/LCD_Char.c ****     *
 658:Generated_Source\PSoC4/LCD_Char.c ****     * Return:
 659:Generated_Source\PSoC4/LCD_Char.c ****     *  None.
 660:Generated_Source\PSoC4/LCD_Char.c ****     *
 661:Generated_Source\PSoC4/LCD_Char.c ****     *******************************************************************************/
 662:Generated_Source\PSoC4/LCD_Char.c ****     void LCD_Char_PrintU32Number(uint32 value) 
 663:Generated_Source\PSoC4/LCD_Char.c ****     {
 1066              		.loc 1 663 0
 1067              		.cfi_startproc
 1068              		@ args = 0, pretend = 0, frame = 24
 1069              		@ frame_needed = 1, uses_anonymous_args = 0
 1070 0000 80B5     		push	{r7, lr}
 1071              		.cfi_def_cfa_offset 8
 1072              		.cfi_offset 7, -8
 1073              		.cfi_offset 14, -4
 1074 0002 86B0     		sub	sp, sp, #24
 1075              		.cfi_def_cfa_offset 32
 1076 0004 00AF     		add	r7, sp, #0
 1077              		.cfi_def_cfa_register 7
 1078 0006 7860     		str	r0, [r7, #4]
 664:Generated_Source\PSoC4/LCD_Char.c ****         uint8 tmpDigit;
 665:Generated_Source\PSoC4/LCD_Char.c ****         char8 number[LCD_Char_NUMBER_OF_REMAINDERS_U32 + 1u];
 666:Generated_Source\PSoC4/LCD_Char.c ****         uint8 digIndex = LCD_Char_NUMBER_OF_REMAINDERS_U32;
 1079              		.loc 1 666 0
 1080 0008 1723     		movs	r3, #23
 1081 000a FB18     		adds	r3, r7, r3
 1082 000c 0A22     		movs	r2, #10
 1083 000e 1A70     		strb	r2, [r3]
 667:Generated_Source\PSoC4/LCD_Char.c ****         
 668:Generated_Source\PSoC4/LCD_Char.c ****         /* This API will output a decimal number as a string and that string will be 
 669:Generated_Source\PSoC4/LCD_Char.c ****         * filled from end to start. Set Null termination character first.
 670:Generated_Source\PSoC4/LCD_Char.c ****         */
 671:Generated_Source\PSoC4/LCD_Char.c ****         number[digIndex] = (char8) '\0';
ARM GAS  C:\Users\quint\AppData\Local\Temp\ccOXFVSh.s 			page 32


 1084              		.loc 1 671 0
 1085 0010 1723     		movs	r3, #23
 1086 0012 FB18     		adds	r3, r7, r3
 1087 0014 1B78     		ldrb	r3, [r3]
 1088 0016 0822     		movs	r2, #8
 1089 0018 BA18     		adds	r2, r7, r2
 1090 001a 0021     		movs	r1, #0
 1091 001c D154     		strb	r1, [r2, r3]
 672:Generated_Source\PSoC4/LCD_Char.c ****         digIndex--;
 1092              		.loc 1 672 0
 1093 001e 1723     		movs	r3, #23
 1094 0020 FB18     		adds	r3, r7, r3
 1095 0022 1A78     		ldrb	r2, [r3]
 1096 0024 1723     		movs	r3, #23
 1097 0026 FB18     		adds	r3, r7, r3
 1098 0028 013A     		subs	r2, r2, #1
 1099 002a 1A70     		strb	r2, [r3]
 673:Generated_Source\PSoC4/LCD_Char.c ****         
 674:Generated_Source\PSoC4/LCD_Char.c ****         /* Load these in reverse order */
 675:Generated_Source\PSoC4/LCD_Char.c ****         while(value >= LCD_Char_TEN)
 1100              		.loc 1 675 0
 1101 002c 21E0     		b	.L48
 1102              	.L49:
 676:Generated_Source\PSoC4/LCD_Char.c ****         {
 677:Generated_Source\PSoC4/LCD_Char.c ****             /* Extract decimal digit, indexed by 'digIndex', from 'value' and
 678:Generated_Source\PSoC4/LCD_Char.c ****             * convert it to ASCII character.
 679:Generated_Source\PSoC4/LCD_Char.c ****             */
 680:Generated_Source\PSoC4/LCD_Char.c ****             tmpDigit = (uint8) (((uint8) (value % LCD_Char_TEN)) + (uint8) LCD_Char_ZERO_CHAR_ASCII
 1103              		.loc 1 680 0
 1104 002e 7B68     		ldr	r3, [r7, #4]
 1105 0030 0A21     		movs	r1, #10
 1106 0032 1800     		movs	r0, r3
 1107 0034 FFF7FEFF 		bl	__aeabi_uidivmod
 1108 0038 0B00     		movs	r3, r1
 1109 003a DAB2     		uxtb	r2, r3
 1110 003c 1623     		movs	r3, #22
 1111 003e FB18     		adds	r3, r7, r3
 1112 0040 3032     		adds	r2, r2, #48
 1113 0042 1A70     		strb	r2, [r3]
 681:Generated_Source\PSoC4/LCD_Char.c ****             
 682:Generated_Source\PSoC4/LCD_Char.c ****             /* Temporary variable 'tmpDigit' is used to avoid Violation of MISRA rule 
 683:Generated_Source\PSoC4/LCD_Char.c ****             * #10.3.
 684:Generated_Source\PSoC4/LCD_Char.c ****             */
 685:Generated_Source\PSoC4/LCD_Char.c ****             number[digIndex] = (char8) tmpDigit;
 1114              		.loc 1 685 0
 1115 0044 1723     		movs	r3, #23
 1116 0046 FB18     		adds	r3, r7, r3
 1117 0048 1B78     		ldrb	r3, [r3]
 1118 004a 0822     		movs	r2, #8
 1119 004c BA18     		adds	r2, r7, r2
 1120 004e 1621     		movs	r1, #22
 1121 0050 7918     		adds	r1, r7, r1
 1122 0052 0978     		ldrb	r1, [r1]
 1123 0054 D154     		strb	r1, [r2, r3]
 686:Generated_Source\PSoC4/LCD_Char.c ****             value /= LCD_Char_TEN;
 1124              		.loc 1 686 0
 1125 0056 7B68     		ldr	r3, [r7, #4]
ARM GAS  C:\Users\quint\AppData\Local\Temp\ccOXFVSh.s 			page 33


 1126 0058 0A21     		movs	r1, #10
 1127 005a 1800     		movs	r0, r3
 1128 005c FFF7FEFF 		bl	__aeabi_uidiv
 1129 0060 0300     		movs	r3, r0
 1130 0062 7B60     		str	r3, [r7, #4]
 687:Generated_Source\PSoC4/LCD_Char.c ****             digIndex--;
 1131              		.loc 1 687 0
 1132 0064 1723     		movs	r3, #23
 1133 0066 FB18     		adds	r3, r7, r3
 1134 0068 1A78     		ldrb	r2, [r3]
 1135 006a 1723     		movs	r3, #23
 1136 006c FB18     		adds	r3, r7, r3
 1137 006e 013A     		subs	r2, r2, #1
 1138 0070 1A70     		strb	r2, [r3]
 1139              	.L48:
 675:Generated_Source\PSoC4/LCD_Char.c ****         {
 1140              		.loc 1 675 0
 1141 0072 7B68     		ldr	r3, [r7, #4]
 1142 0074 092B     		cmp	r3, #9
 1143 0076 DAD8     		bhi	.L49
 688:Generated_Source\PSoC4/LCD_Char.c ****         }
 689:Generated_Source\PSoC4/LCD_Char.c ****         
 690:Generated_Source\PSoC4/LCD_Char.c ****         /* Extract last decimal digit 'digIndex', from the 'value' and convert it
 691:Generated_Source\PSoC4/LCD_Char.c ****         * to ASCII character.
 692:Generated_Source\PSoC4/LCD_Char.c ****         */
 693:Generated_Source\PSoC4/LCD_Char.c ****         tmpDigit = (uint8) (((uint8)(value % LCD_Char_TEN)) + (uint8) LCD_Char_ZERO_CHAR_ASCII);
 1144              		.loc 1 693 0
 1145 0078 7B68     		ldr	r3, [r7, #4]
 1146 007a 0A21     		movs	r1, #10
 1147 007c 1800     		movs	r0, r3
 1148 007e FFF7FEFF 		bl	__aeabi_uidivmod
 1149 0082 0B00     		movs	r3, r1
 1150 0084 DAB2     		uxtb	r2, r3
 1151 0086 1623     		movs	r3, #22
 1152 0088 FB18     		adds	r3, r7, r3
 1153 008a 3032     		adds	r2, r2, #48
 1154 008c 1A70     		strb	r2, [r3]
 694:Generated_Source\PSoC4/LCD_Char.c ****         number[digIndex] = (char8) tmpDigit;
 1155              		.loc 1 694 0
 1156 008e 1723     		movs	r3, #23
 1157 0090 FB18     		adds	r3, r7, r3
 1158 0092 1B78     		ldrb	r3, [r3]
 1159 0094 0822     		movs	r2, #8
 1160 0096 BA18     		adds	r2, r7, r2
 1161 0098 1621     		movs	r1, #22
 1162 009a 7918     		adds	r1, r7, r1
 1163 009c 0978     		ldrb	r1, [r1]
 1164 009e D154     		strb	r1, [r2, r3]
 695:Generated_Source\PSoC4/LCD_Char.c **** 
 696:Generated_Source\PSoC4/LCD_Char.c ****         /* Print out number */
 697:Generated_Source\PSoC4/LCD_Char.c ****         LCD_Char_PrintString(&number[digIndex]);
 1165              		.loc 1 697 0
 1166 00a0 1723     		movs	r3, #23
 1167 00a2 FB18     		adds	r3, r7, r3
 1168 00a4 1B78     		ldrb	r3, [r3]
 1169 00a6 0822     		movs	r2, #8
 1170 00a8 BA18     		adds	r2, r7, r2
ARM GAS  C:\Users\quint\AppData\Local\Temp\ccOXFVSh.s 			page 34


 1171 00aa D318     		adds	r3, r2, r3
 1172 00ac 1800     		movs	r0, r3
 1173 00ae FFF7FEFF 		bl	LCD_Char_PrintString
 698:Generated_Source\PSoC4/LCD_Char.c ****     }
 1174              		.loc 1 698 0
 1175 00b2 C046     		nop
 1176 00b4 BD46     		mov	sp, r7
 1177 00b6 06B0     		add	sp, sp, #24
 1178              		@ sp needed
 1179 00b8 80BD     		pop	{r7, pc}
 1180              		.cfi_endproc
 1181              	.LFE15:
 1182              		.size	LCD_Char_PrintU32Number, .-LCD_Char_PrintU32Number
 1183 00ba C046     		.section	.rodata
 1184              		.align	2
 1185              		.type	LCD_Char_hex.4923, %object
 1186              		.size	LCD_Char_hex.4923, 16
 1187              	LCD_Char_hex.4923:
 1188 0000 30313233 		.ascii	"0123456789ABCDEF"
 1188      34353637 
 1188      38394142 
 1188      43444546 
 1189              		.text
 1190              	.Letext0:
 1191              		.file 2 "Generated_Source\\PSoC4\\cytypes.h"
 1192              		.file 3 "Generated_Source\\PSoC4\\LCD_Char.h"