ARM GAS  C:\Users\quint\AppData\Local\Temp\ccAl9Hc0.s 			page 1


   1              		.syntax unified
   2              		.cpu cortex-m0
   3              		.fpu softvfp
   4              		.eabi_attribute 20, 1
   5              		.eabi_attribute 21, 1
   6              		.eabi_attribute 23, 3
   7              		.eabi_attribute 24, 1
   8              		.eabi_attribute 25, 1
   9              		.eabi_attribute 26, 1
  10              		.eabi_attribute 30, 6
  11              		.eabi_attribute 34, 0
  12              		.eabi_attribute 18, 4
  13              		.thumb
  14              		.syntax unified
  15              		.file	"main.c"
  16              		.text
  17              	.Ltext0:
  18              		.cfi_sections	.debug_frame
  19              		.global	i
  20              		.bss
  21              		.align	1
  22              		.type	i, %object
  23              		.size	i, 2
  24              	i:
  25 0000 0000     		.space	2
  26              		.global	distance
  27 0002 0000     		.align	2
  28              		.type	distance, %object
  29              		.size	distance, 4
  30              	distance:
  31 0004 00000000 		.space	4
  32              		.global	__aeabi_idiv
  33              		.section	.text.Timer_ISR_handler,"ax",%progbits
  34              		.align	2
  35              		.global	Timer_ISR_handler
  36              		.code	16
  37              		.thumb_func
  38              		.type	Timer_ISR_handler, %function
  39              	Timer_ISR_handler:
  40              	.LFB33:
  41              		.file 1 "main.c"
   1:main.c        **** /* ========================================
   2:main.c        ****  *
   3:main.c        ****  * Copyleft by Shahariar,2015
   4:main.c        ****  * All Rights Released
   5:main.c        ****  * OPEN SOFTWARE, NO WARRENTY 
   6:main.c        ****  *
   7:main.c        ****  * DODGY BROTHERS C CODING Inc.  
   8:main.c        ****  * BUG may appear in Future !!!
   9:main.c        ****  * Non-Precision UltraSonic Ranger,
  10:main.c        ****  * ========================================
  11:main.c        **** */
  12:main.c        **** 
  13:main.c        **** #include <project.h>
  14:main.c        **** #include "stdio.h"
  15:main.c        **** 
  16:main.c        **** 
ARM GAS  C:\Users\quint\AppData\Local\Temp\ccAl9Hc0.s 			page 2


  17:main.c        **** // Initial time ,set  here
  18:main.c        **** int16 i =0;
  19:main.c        **** int distance=0;
  20:main.c        **** 
  21:main.c        **** //CY ISR is a macro for interrupt handling
  22:main.c        **** // http://www.cypress.com/go/an90799 for detalis
  23:main.c        **** CY_ISR(Timer_ISR_handler)
  24:main.c        **** {
  42              		.loc 1 24 0
  43              		.cfi_startproc
  44              		@ args = 0, pretend = 0, frame = 0
  45              		@ frame_needed = 1, uses_anonymous_args = 0
  46 0000 80B5     		push	{r7, lr}
  47              		.cfi_def_cfa_offset 8
  48              		.cfi_offset 7, -8
  49              		.cfi_offset 14, -4
  50 0002 00AF     		add	r7, sp, #0
  51              		.cfi_def_cfa_register 7
  25:main.c        ****     // at 1MHz Timer clock each count is 1 micro Second
  26:main.c        ****     Timer_ClearInterrupt(Timer_INTR_MASK_CC_MATCH);
  52              		.loc 1 26 0
  53 0004 0220     		movs	r0, #2
  54 0006 FFF7FEFF 		bl	Timer_ClearInterrupt
  27:main.c        ****     i= Timer_ReadCounter();    
  55              		.loc 1 27 0
  56 000a FFF7FEFF 		bl	Timer_ReadCounter
  57 000e 0300     		movs	r3, r0
  58 0010 1AB2     		sxth	r2, r3
  59 0012 084B     		ldr	r3, .L2
  60 0014 1A80     		strh	r2, [r3]
  28:main.c        ****     
  29:main.c        ****     // from HC 04 Ultra Sonic module's datasheet, each 58 uS = 1 cm
  30:main.c        ****     
  31:main.c        ****     distance =i/58;
  61              		.loc 1 31 0
  62 0016 074B     		ldr	r3, .L2
  63 0018 0022     		movs	r2, #0
  64 001a 9B5E     		ldrsh	r3, [r3, r2]
  65 001c 3A21     		movs	r1, #58
  66 001e 1800     		movs	r0, r3
  67 0020 FFF7FEFF 		bl	__aeabi_idiv
  68 0024 0300     		movs	r3, r0
  69 0026 1BB2     		sxth	r3, r3
  70 0028 1A00     		movs	r2, r3
  71 002a 034B     		ldr	r3, .L2+4
  72 002c 1A60     		str	r2, [r3]
  32:main.c        ****     // please note that measured distance above 400 cm is not reliable
  33:main.c        ****     
  34:main.c        **** }
  73              		.loc 1 34 0
  74 002e C046     		nop
  75 0030 BD46     		mov	sp, r7
  76              		@ sp needed
  77 0032 80BD     		pop	{r7, pc}
  78              	.L3:
  79              		.align	2
  80              	.L2:
ARM GAS  C:\Users\quint\AppData\Local\Temp\ccAl9Hc0.s 			page 3


  81 0034 00000000 		.word	i
  82 0038 00000000 		.word	distance
  83              		.cfi_endproc
  84              	.LFE33:
  85              		.size	Timer_ISR_handler, .-Timer_ISR_handler
  86              		.section	.rodata
  87              		.align	2
  88              	.LC2:
  89 0000 0D0A4B6E 		.ascii	"\015\012Knight Guard Proximity Sensor Test\015\012\000"
  89      69676874 
  89      20477561 
  89      72642050 
  89      726F7869 
  90 0027 00       		.align	2
  91              	.LC6:
  92 0028 256400   		.ascii	"%d\000"
  93 002b 00       		.align	2
  94              	.LC8:
  95 002c 0D0A00   		.ascii	"\015\012\000"
  96              		.section	.text.main,"ax",%progbits
  97              		.align	2
  98              		.global	main
  99              		.code	16
 100              		.thumb_func
 101              		.type	main, %function
 102              	main:
 103              	.LFB34:
  35:main.c        **** 
  36:main.c        **** int main()
  37:main.c        **** 
  38:main.c        **** {
 104              		.loc 1 38 0
 105              		.cfi_startproc
 106              		@ args = 0, pretend = 0, frame = 16
 107              		@ frame_needed = 1, uses_anonymous_args = 0
 108 0000 80B5     		push	{r7, lr}
 109              		.cfi_def_cfa_offset 8
 110              		.cfi_offset 7, -8
 111              		.cfi_offset 14, -4
 112 0002 84B0     		sub	sp, sp, #16
 113              		.cfi_def_cfa_offset 24
 114 0004 00AF     		add	r7, sp, #0
 115              		.cfi_def_cfa_register 7
  39:main.c        ****     
  40:main.c        ****      UART_Start();
 116              		.loc 1 40 0
 117 0006 FFF7FEFF 		bl	UART_Start
  41:main.c        **** 
  42:main.c        ****     UART_UartPutString("\r\nKnight Guard Proximity Sensor Test\r\n");
 118              		.loc 1 42 0
 119 000a 194B     		ldr	r3, .L8
 120 000c 1800     		movs	r0, r3
 121 000e FFF7FEFF 		bl	UART_UartPutString
  43:main.c        **** // Start Timer
  44:main.c        ****     Timer_Start();
 122              		.loc 1 44 0
 123 0012 FFF7FEFF 		bl	Timer_Start
ARM GAS  C:\Users\quint\AppData\Local\Temp\ccAl9Hc0.s 			page 4


  45:main.c        **** // Enable Global Interrupt and start ISR  
  46:main.c        ****     CyGlobalIntEnable; 
 124              		.loc 1 46 0
 125              		.syntax divided
 126              	@ 46 "main.c" 1
 127 0016 62B6     		CPSIE   i
 128              	@ 0 "" 2
  47:main.c        ****     ISR_StartEx(Timer_ISR_handler);
 129              		.loc 1 47 0
 130              		.thumb
 131              		.syntax unified
 132 0018 164B     		ldr	r3, .L8+4
 133 001a 1800     		movs	r0, r3
 134 001c FFF7FEFF 		bl	ISR_StartEx
 135              	.L7:
 136              	.LBB2:
  48:main.c        ****     //SetTime_ISR_Start();
  49:main.c        ****     
  50:main.c        **** 
  51:main.c        **** 
  52:main.c        **** 
  53:main.c        ****     
  54:main.c        ****              
  55:main.c        ****         for(;;)
  56:main.c        ****         {
  57:main.c        ****                //UART_UartPutString("\r\nKnight Guard\r\n");
  58:main.c        ****               // UART_UartPutString("\r\n**********************************************************
  59:main.c        ****     // for proper application, delay should not be used, 
  60:main.c        ****     // instead a preiodic interrupt or a function call is recommended
  61:main.c        ****     CyDelay(100);
 137              		.loc 1 61 0
 138 0020 6420     		movs	r0, #100
 139 0022 FFF7FEFF 		bl	CyDelay
  62:main.c        ****     
  63:main.c        ****     // Triggers the Ultra Sonic Sensor 
  64:main.c        ****     Trigger_Write(1);
 140              		.loc 1 64 0
 141 0026 0120     		movs	r0, #1
 142 0028 FFF7FEFF 		bl	Trigger_Write
  65:main.c        ****     //LED_Write(1);
  66:main.c        ****     CyDelayUs(10);
 143              		.loc 1 66 0
 144 002c 0A20     		movs	r0, #10
 145 002e FFF7FEFF 		bl	CyDelayUs
  67:main.c        ****     // for 10 uS
  68:main.c        ****     Trigger_Write(0);
 146              		.loc 1 68 0
 147 0032 0020     		movs	r0, #0
 148 0034 FFF7FEFF 		bl	Trigger_Write
  69:main.c        ****     //LED_Write(0);
  70:main.c        ****     //char distanceChar= distance; 
  71:main.c        ****     
  72:main.c        ****     char distanceBuf[10];
  73:main.c        **** //int value = 234452;
  74:main.c        ****     sprintf(distanceBuf,"%d", distance);
 149              		.loc 1 74 0
 150 0038 0F4B     		ldr	r3, .L8+8
ARM GAS  C:\Users\quint\AppData\Local\Temp\ccAl9Hc0.s 			page 5


 151 003a 1A68     		ldr	r2, [r3]
 152 003c 0F49     		ldr	r1, .L8+12
 153 003e 3B1D     		adds	r3, r7, #4
 154 0040 1800     		movs	r0, r3
 155 0042 FFF7FEFF 		bl	sprintf
  75:main.c        ****      UART_UartPutString(distanceBuf);
 156              		.loc 1 75 0
 157 0046 3B1D     		adds	r3, r7, #4
 158 0048 1800     		movs	r0, r3
 159 004a FFF7FEFF 		bl	UART_UartPutString
  76:main.c        ****      UART_UartPutString("\r\n");
 160              		.loc 1 76 0
 161 004e 0C4B     		ldr	r3, .L8+16
 162 0050 1800     		movs	r0, r3
 163 0052 FFF7FEFF 		bl	UART_UartPutString
  77:main.c        ****   
  78:main.c        ****     if(distance >10)
 164              		.loc 1 78 0
 165 0056 084B     		ldr	r3, .L8+8
 166 0058 1B68     		ldr	r3, [r3]
 167 005a 0A2B     		cmp	r3, #10
 168 005c 03DD     		ble	.L5
  79:main.c        ****     {
  80:main.c        ****         LED_Write(1);
 169              		.loc 1 80 0
 170 005e 0120     		movs	r0, #1
 171 0060 FFF7FEFF 		bl	LED_Write
 172 0064 DCE7     		b	.L7
 173              	.L5:
  81:main.c        ****     }
  82:main.c        ****     else
  83:main.c        ****         LED_Write(0); 
 174              		.loc 1 83 0
 175 0066 0020     		movs	r0, #0
 176 0068 FFF7FEFF 		bl	LED_Write
 177              	.LBE2:
  84:main.c        ****     
  85:main.c        **** }
 178              		.loc 1 85 0
 179 006c D8E7     		b	.L7
 180              	.L9:
 181 006e C046     		.align	2
 182              	.L8:
 183 0070 00000000 		.word	.LC2
 184 0074 00000000 		.word	Timer_ISR_handler
 185 0078 00000000 		.word	distance
 186 007c 28000000 		.word	.LC6
 187 0080 2C000000 		.word	.LC8
 188              		.cfi_endproc
 189              	.LFE34:
 190              		.size	main, .-main
 191              		.text
 192              	.Letext0:
 193              		.file 2 "Generated_Source\\PSoC4/cytypes.h"